                              1 ;--------------------------------------------------------
                              2 ; File Created by SDCC : FreeWare ANSI-C Compiler
                              3 ; Version 2.2.1 Sun Dec 09 16:36:15 2018
                              4 
                              5 ;--------------------------------------------------------
                              6 	.module lcc128800
                              7 	
                              8 ;--------------------------------------------------------
                              9 ; Public variables in this module
                             10 ;--------------------------------------------------------
                             11 	.globl _main
                             12 	.globl _collisionCheck
                             13 	.globl _updateSwitches
                             14 	.globl _checkCollisions
                             15 	.globl _moveAstroids
                             16 	.globl _moveLaser
                             17 	.globl _checkInput
                             18 	.globl _init
                             19 	.globl _arand
                             20 	.globl _initarand
                             21 	.globl _randw
                             22 	.globl _rand
                             23 	.globl _initrand
                             24 	.globl _get_tiles
                             25 	.globl _set_tiles
                             26 	.globl _get_data
                             27 	.globl _set_data
                             28 	.globl _scroll_sprite
                             29 	.globl _move_sprite
                             30 	.globl _get_sprite_prop
                             31 	.globl _set_sprite_prop
                             32 	.globl _get_sprite_tile
                             33 	.globl _set_sprite_tile
                             34 	.globl _get_sprite_data
                             35 	.globl _set_sprite_data
                             36 	.globl _scroll_win
                             37 	.globl _move_win
                             38 	.globl _get_win_tiles
                             39 	.globl _set_win_tiles
                             40 	.globl _set_win_data
                             41 	.globl _scroll_bkg
                             42 	.globl _move_bkg
                             43 	.globl _get_bkg_tiles
                             44 	.globl _set_bkg_tiles
                             45 	.globl _set_bkg_data
                             46 	.globl _hiramcpy
                             47 	.globl _display_off
                             48 	.globl _wait_vbl_done
                             49 	.globl _reset
                             50 	.globl _set_interrupts
                             51 	.globl _disable_interrupts
                             52 	.globl _enable_interrupts
                             53 	.globl _waitpadup
                             54 	.globl _waitpad
                             55 	.globl _joypad
                             56 	.globl _delay
                             57 	.globl _receive_byte
                             58 	.globl _send_byte
                             59 	.globl _get_mode
                             60 	.globl _mode
                             61 	.globl _add_TIM
                             62 	.globl _add_LCD
                             63 	.globl _add_VBL
                             64 	.globl _remove_JOY
                             65 	.globl _remove_SIO
                             66 	.globl _remove_TIM
                             67 	.globl _remove_LCD
                             68 	.globl _remove_VBL
                             69 	.globl _cgb_compatibility
                             70 	.globl _cpu_fast
                             71 	.globl _cpu_slow
                             72 	.globl _set_sprite_palette_entry
                             73 	.globl _set_bkg_palette_entry
                             74 	.globl _set_sprite_palette
                             75 	.globl _set_bkg_palette
                             76 	.globl _sgb_check
                             77 	.globl _Asteroids
                             78 	.globl _tick
                             79 	.globl _upDown
                             80 	.globl _score
                             81 	.globl _j
                             82 	.globl _i
                             83 	.globl _Asteroid_Sprites
                             84 	.globl _explosion
                             85 	.globl _laser
                             86 	.globl _player
                             87 	.globl _Sprites
                             88 	.globl _Tiles
                             89 	.globl _Initial_Load
                             90 ;--------------------------------------------------------
                             91 ; Externals used
                             92 ;--------------------------------------------------------
                             93 	.globl _IE_REG
                             94 	.globl _SVBK_REG
                             95 	.globl _OCPD_REG
                             96 	.globl _OCPS_REG
                             97 	.globl _BCPD_REG
                             98 	.globl _BCPS_REG
                             99 	.globl _RP_REG
                            100 	.globl _HDMA5_REG
                            101 	.globl _HDMA4_REG
                            102 	.globl _HDMA3_REG
                            103 	.globl _HDMA2_REG
                            104 	.globl _HDMA1_REG
                            105 	.globl _VBK_REG
                            106 	.globl _KEY1_REG
                            107 	.globl _WX_REG
                            108 	.globl _WY_REG
                            109 	.globl _OBP1_REG
                            110 	.globl _OBP0_REG
                            111 	.globl _BGP_REG
                            112 	.globl _DMA_REG
                            113 	.globl _LYC_REG
                            114 	.globl _LY_REG
                            115 	.globl _SCX_REG
                            116 	.globl _SCY_REG
                            117 	.globl _STAT_REG
                            118 	.globl _LCDC_REG
                            119 	.globl _NR52_REG
                            120 	.globl _NR51_REG
                            121 	.globl _NR50_REG
                            122 	.globl _NR44_REG
                            123 	.globl _NR43_REG
                            124 	.globl _NR42_REG
                            125 	.globl _NR41_REG
                            126 	.globl _NR34_REG
                            127 	.globl _NR33_REG
                            128 	.globl _NR32_REG
                            129 	.globl _NR31_REG
                            130 	.globl _NR30_REG
                            131 	.globl _NR24_REG
                            132 	.globl _NR23_REG
                            133 	.globl _NR22_REG
                            134 	.globl _NR21_REG
                            135 	.globl _NR14_REG
                            136 	.globl _NR13_REG
                            137 	.globl _NR12_REG
                            138 	.globl _NR11_REG
                            139 	.globl _NR10_REG
                            140 	.globl _IF_REG
                            141 	.globl _TAC_REG
                            142 	.globl _TMA_REG
                            143 	.globl _TIMA_REG
                            144 	.globl _DIV_REG
                            145 	.globl _SC_REG
                            146 	.globl _SB_REG
                            147 	.globl _P1_REG
                            148 	.globl __io_out
                            149 	.globl __io_in
                            150 	.globl __io_status
                            151 	.globl _sys_time
                            152 	.globl __cpu
                            153 ;--------------------------------------------------------
                            154 ; special function registers
                            155 ;--------------------------------------------------------
                            156 ;--------------------------------------------------------
                            157 ; special function bits 
                            158 ;--------------------------------------------------------
                            159 ;--------------------------------------------------------
                            160 ; internal ram data
                            161 ;--------------------------------------------------------
                            162 	.area _DATA
   0000                     163 _Initial_Load::
   0000                     164 	.ds 360
   0168                     165 _Tiles::
   0168                     166 	.ds 48
   0198                     167 _Sprites::
   0198                     168 	.ds 144
   0228                     169 _player::
   0228                     170 	.ds 3
   022B                     171 _laser::
   022B                     172 	.ds 3
   022E                     173 _explosion::
   022E                     174 	.ds 2
   0230                     175 _Asteroid_Sprites::
   0230                     176 	.ds 1
   0231                     177 _i::
   0231                     178 	.ds 1
   0232                     179 _j::
   0232                     180 	.ds 1
   0233                     181 _score::
   0233                     182 	.ds 1
   0234                     183 _upDown::
   0234                     184 	.ds 1
   0235                     185 _tick::
   0235                     186 	.ds 1
   0236                     187 _Asteroids::
   0236                     188 	.ds 32
                            189 ;--------------------------------------------------------
                            190 ; overlayable items in internal ram 
                            191 ;--------------------------------------------------------
                            192 	.area _OVERLAY
                            193 ;--------------------------------------------------------
                            194 ; indirectly addressable internal ram data
                            195 ;--------------------------------------------------------
                            196 	.area _ISEG
                            197 ;--------------------------------------------------------
                            198 ; bit data
                            199 ;--------------------------------------------------------
                            200 	.area _BSEG
                            201 ;--------------------------------------------------------
                            202 ; external ram data
                            203 ;--------------------------------------------------------
                            204 	.area _XSEG
                            205 ;--------------------------------------------------------
                            206 ; global & static initialisations
                            207 ;--------------------------------------------------------
                            208 	.area _GSINIT
                            209 	.area _GSFINAL
                            210 	.area _GSINIT
                            211 ;	main.c 236
                            212 ; genAssign (pointer)
   0000 11 00 00            213 	ld	de,#_Initial_Load + 0
   0003 3E 01               214 	ld	a,#0x01
   0005 12                  215 	ld	(de),a
                            216 ; genPlus
                            217 ; genPlusIncr
   0006 11 01 00            218 	ld	de,#_Initial_Load + 1
                            219 ; genAssign (pointer)
   0009 3E 01               220 	ld	a,#0x01
   000B 12                  221 	ld	(de),a
                            222 ; genPlus
                            223 ; genPlusIncr
   000C 11 02 00            224 	ld	de,#_Initial_Load + 2
                            225 ; genAssign (pointer)
   000F 3E 01               226 	ld	a,#0x01
   0011 12                  227 	ld	(de),a
                            228 ; genPlus
                            229 ; genPlusIncr
   0012 11 03 00            230 	ld	de,#_Initial_Load + 3
                            231 ; genAssign (pointer)
   0015 3E 01               232 	ld	a,#0x01
   0017 12                  233 	ld	(de),a
                            234 ; genPlus
                            235 ; genPlusIncr
   0018 11 04 00            236 	ld	de,#_Initial_Load + 4
                            237 ; genAssign (pointer)
   001B 3E 01               238 	ld	a,#0x01
   001D 12                  239 	ld	(de),a
                            240 ; genPlus
                            241 ; genPlusIncr
   001E 11 05 00            242 	ld	de,#_Initial_Load + 5
                            243 ; genAssign (pointer)
   0021 3E 01               244 	ld	a,#0x01
   0023 12                  245 	ld	(de),a
                            246 ; genPlus
                            247 ; genPlusIncr
   0024 11 06 00            248 	ld	de,#_Initial_Load + 6
                            249 ; genAssign (pointer)
   0027 3E 01               250 	ld	a,#0x01
   0029 12                  251 	ld	(de),a
                            252 ; genPlus
                            253 ; genPlusIncr
   002A 11 07 00            254 	ld	de,#_Initial_Load + 7
                            255 ; genAssign (pointer)
   002D 3E 01               256 	ld	a,#0x01
   002F 12                  257 	ld	(de),a
                            258 ; genPlus
                            259 ; genPlusIncr
   0030 11 08 00            260 	ld	de,#_Initial_Load + 8
                            261 ; genAssign (pointer)
   0033 3E 01               262 	ld	a,#0x01
   0035 12                  263 	ld	(de),a
                            264 ; genPlus
                            265 ; genPlusIncr
   0036 11 09 00            266 	ld	de,#_Initial_Load + 9
                            267 ; genAssign (pointer)
   0039 3E 01               268 	ld	a,#0x01
   003B 12                  269 	ld	(de),a
                            270 ; genPlus
                            271 ; genPlusIncr
   003C 11 0A 00            272 	ld	de,#_Initial_Load + 10
                            273 ; genAssign (pointer)
   003F 3E 01               274 	ld	a,#0x01
   0041 12                  275 	ld	(de),a
                            276 ; genPlus
                            277 ; genPlusIncr
   0042 11 0B 00            278 	ld	de,#_Initial_Load + 11
                            279 ; genAssign (pointer)
   0045 3E 01               280 	ld	a,#0x01
   0047 12                  281 	ld	(de),a
                            282 ; genPlus
                            283 ; genPlusIncr
   0048 11 0C 00            284 	ld	de,#_Initial_Load + 12
                            285 ; genAssign (pointer)
   004B 3E 01               286 	ld	a,#0x01
   004D 12                  287 	ld	(de),a
                            288 ; genPlus
                            289 ; genPlusIncr
   004E 11 0D 00            290 	ld	de,#_Initial_Load + 13
                            291 ; genAssign (pointer)
   0051 3E 01               292 	ld	a,#0x01
   0053 12                  293 	ld	(de),a
                            294 ; genPlus
                            295 ; genPlusIncr
   0054 11 0E 00            296 	ld	de,#_Initial_Load + 14
                            297 ; genAssign (pointer)
   0057 3E 01               298 	ld	a,#0x01
   0059 12                  299 	ld	(de),a
                            300 ; genPlus
                            301 ; genPlusIncr
   005A 11 0F 00            302 	ld	de,#_Initial_Load + 15
                            303 ; genAssign (pointer)
   005D 3E 01               304 	ld	a,#0x01
   005F 12                  305 	ld	(de),a
                            306 ; genPlus
                            307 ; genPlusIncr
   0060 11 10 00            308 	ld	de,#_Initial_Load + 16
                            309 ; genAssign (pointer)
   0063 3E 01               310 	ld	a,#0x01
   0065 12                  311 	ld	(de),a
                            312 ; genPlus
                            313 ; genPlusIncr
   0066 11 11 00            314 	ld	de,#_Initial_Load + 17
                            315 ; genAssign (pointer)
   0069 3E 01               316 	ld	a,#0x01
   006B 12                  317 	ld	(de),a
                            318 ; genPlus
                            319 ; genPlusIncr
   006C 11 12 00            320 	ld	de,#_Initial_Load + 18
                            321 ; genAssign (pointer)
   006F 3E 01               322 	ld	a,#0x01
   0071 12                  323 	ld	(de),a
                            324 ; genPlus
                            325 ; genPlusIncr
   0072 11 13 00            326 	ld	de,#_Initial_Load + 19
                            327 ; genAssign (pointer)
   0075 3E 01               328 	ld	a,#0x01
   0077 12                  329 	ld	(de),a
                            330 ; genPlus
                            331 ; genPlusIncr
   0078 11 14 00            332 	ld	de,#_Initial_Load + 20
                            333 ; genAssign (pointer)
   007B 3E 01               334 	ld	a,#0x01
   007D 12                  335 	ld	(de),a
                            336 ; genPlus
                            337 ; genPlusIncr
   007E 11 15 00            338 	ld	de,#_Initial_Load + 21
                            339 ; genAssign (pointer)
   0081 3E 01               340 	ld	a,#0x01
   0083 12                  341 	ld	(de),a
                            342 ; genPlus
                            343 ; genPlusIncr
   0084 11 16 00            344 	ld	de,#_Initial_Load + 22
                            345 ; genAssign (pointer)
   0087 3E 01               346 	ld	a,#0x01
   0089 12                  347 	ld	(de),a
                            348 ; genPlus
                            349 ; genPlusIncr
   008A 11 17 00            350 	ld	de,#_Initial_Load + 23
                            351 ; genAssign (pointer)
   008D 3E 01               352 	ld	a,#0x01
   008F 12                  353 	ld	(de),a
                            354 ; genPlus
                            355 ; genPlusIncr
   0090 11 18 00            356 	ld	de,#_Initial_Load + 24
                            357 ; genAssign (pointer)
   0093 3E 01               358 	ld	a,#0x01
   0095 12                  359 	ld	(de),a
                            360 ; genPlus
                            361 ; genPlusIncr
   0096 11 19 00            362 	ld	de,#_Initial_Load + 25
                            363 ; genAssign (pointer)
   0099 3E 01               364 	ld	a,#0x01
   009B 12                  365 	ld	(de),a
                            366 ; genPlus
                            367 ; genPlusIncr
   009C 11 1A 00            368 	ld	de,#_Initial_Load + 26
                            369 ; genAssign (pointer)
   009F 3E 01               370 	ld	a,#0x01
   00A1 12                  371 	ld	(de),a
                            372 ; genPlus
                            373 ; genPlusIncr
   00A2 11 1B 00            374 	ld	de,#_Initial_Load + 27
                            375 ; genAssign (pointer)
   00A5 3E 01               376 	ld	a,#0x01
   00A7 12                  377 	ld	(de),a
                            378 ; genPlus
                            379 ; genPlusIncr
   00A8 11 1C 00            380 	ld	de,#_Initial_Load + 28
                            381 ; genAssign (pointer)
   00AB 3E 01               382 	ld	a,#0x01
   00AD 12                  383 	ld	(de),a
                            384 ; genPlus
                            385 ; genPlusIncr
   00AE 11 1D 00            386 	ld	de,#_Initial_Load + 29
                            387 ; genAssign (pointer)
   00B1 3E 01               388 	ld	a,#0x01
   00B3 12                  389 	ld	(de),a
                            390 ; genPlus
                            391 ; genPlusIncr
   00B4 11 1E 00            392 	ld	de,#_Initial_Load + 30
                            393 ; genAssign (pointer)
   00B7 3E 01               394 	ld	a,#0x01
   00B9 12                  395 	ld	(de),a
                            396 ; genPlus
                            397 ; genPlusIncr
   00BA 11 1F 00            398 	ld	de,#_Initial_Load + 31
                            399 ; genAssign (pointer)
   00BD 3E 01               400 	ld	a,#0x01
   00BF 12                  401 	ld	(de),a
                            402 ; genPlus
                            403 ; genPlusIncr
   00C0 11 20 00            404 	ld	de,#_Initial_Load + 32
                            405 ; genAssign (pointer)
   00C3 3E 01               406 	ld	a,#0x01
   00C5 12                  407 	ld	(de),a
                            408 ; genPlus
                            409 ; genPlusIncr
   00C6 11 21 00            410 	ld	de,#_Initial_Load + 33
                            411 ; genAssign (pointer)
   00C9 3E 01               412 	ld	a,#0x01
   00CB 12                  413 	ld	(de),a
                            414 ; genPlus
                            415 ; genPlusIncr
   00CC 11 22 00            416 	ld	de,#_Initial_Load + 34
                            417 ; genAssign (pointer)
   00CF 3E 01               418 	ld	a,#0x01
   00D1 12                  419 	ld	(de),a
                            420 ; genPlus
                            421 ; genPlusIncr
   00D2 11 23 00            422 	ld	de,#_Initial_Load + 35
                            423 ; genAssign (pointer)
   00D5 3E 01               424 	ld	a,#0x01
   00D7 12                  425 	ld	(de),a
                            426 ; genPlus
                            427 ; genPlusIncr
   00D8 11 24 00            428 	ld	de,#_Initial_Load + 36
                            429 ; genAssign (pointer)
   00DB 3E 01               430 	ld	a,#0x01
   00DD 12                  431 	ld	(de),a
                            432 ; genPlus
                            433 ; genPlusIncr
   00DE 11 25 00            434 	ld	de,#_Initial_Load + 37
                            435 ; genAssign (pointer)
   00E1 3E 01               436 	ld	a,#0x01
   00E3 12                  437 	ld	(de),a
                            438 ; genPlus
                            439 ; genPlusIncr
   00E4 11 26 00            440 	ld	de,#_Initial_Load + 38
                            441 ; genAssign (pointer)
   00E7 3E 01               442 	ld	a,#0x01
   00E9 12                  443 	ld	(de),a
                            444 ; genPlus
                            445 ; genPlusIncr
   00EA 11 27 00            446 	ld	de,#_Initial_Load + 39
                            447 ; genAssign (pointer)
   00ED 3E 01               448 	ld	a,#0x01
   00EF 12                  449 	ld	(de),a
                            450 ; genPlus
                            451 ; genPlusIncr
   00F0 11 28 00            452 	ld	de,#_Initial_Load + 40
                            453 ; genAssign (pointer)
   00F3 3E 01               454 	ld	a,#0x01
   00F5 12                  455 	ld	(de),a
                            456 ; genPlus
                            457 ; genPlusIncr
   00F6 11 29 00            458 	ld	de,#_Initial_Load + 41
                            459 ; genAssign (pointer)
   00F9 3E 01               460 	ld	a,#0x01
   00FB 12                  461 	ld	(de),a
                            462 ; genPlus
                            463 ; genPlusIncr
   00FC 11 2A 00            464 	ld	de,#_Initial_Load + 42
                            465 ; genAssign (pointer)
   00FF 3E 01               466 	ld	a,#0x01
   0101 12                  467 	ld	(de),a
                            468 ; genPlus
                            469 ; genPlusIncr
   0102 11 2B 00            470 	ld	de,#_Initial_Load + 43
                            471 ; genAssign (pointer)
   0105 3E 01               472 	ld	a,#0x01
   0107 12                  473 	ld	(de),a
                            474 ; genPlus
                            475 ; genPlusIncr
   0108 11 2C 00            476 	ld	de,#_Initial_Load + 44
                            477 ; genAssign (pointer)
   010B 3E 01               478 	ld	a,#0x01
   010D 12                  479 	ld	(de),a
                            480 ; genPlus
                            481 ; genPlusIncr
   010E 11 2D 00            482 	ld	de,#_Initial_Load + 45
                            483 ; genAssign (pointer)
   0111 3E 01               484 	ld	a,#0x01
   0113 12                  485 	ld	(de),a
                            486 ; genPlus
                            487 ; genPlusIncr
   0114 11 2E 00            488 	ld	de,#_Initial_Load + 46
                            489 ; genAssign (pointer)
   0117 3E 01               490 	ld	a,#0x01
   0119 12                  491 	ld	(de),a
                            492 ; genPlus
                            493 ; genPlusIncr
   011A 11 2F 00            494 	ld	de,#_Initial_Load + 47
                            495 ; genAssign (pointer)
   011D 3E 01               496 	ld	a,#0x01
   011F 12                  497 	ld	(de),a
                            498 ; genPlus
                            499 ; genPlusIncr
   0120 11 30 00            500 	ld	de,#_Initial_Load + 48
                            501 ; genAssign (pointer)
   0123 3E 01               502 	ld	a,#0x01
   0125 12                  503 	ld	(de),a
                            504 ; genPlus
                            505 ; genPlusIncr
   0126 11 31 00            506 	ld	de,#_Initial_Load + 49
                            507 ; genAssign (pointer)
   0129 3E 01               508 	ld	a,#0x01
   012B 12                  509 	ld	(de),a
                            510 ; genPlus
                            511 ; genPlusIncr
   012C 11 32 00            512 	ld	de,#_Initial_Load + 50
                            513 ; genAssign (pointer)
   012F 3E 01               514 	ld	a,#0x01
   0131 12                  515 	ld	(de),a
                            516 ; genPlus
                            517 ; genPlusIncr
   0132 11 33 00            518 	ld	de,#_Initial_Load + 51
                            519 ; genAssign (pointer)
   0135 3E 01               520 	ld	a,#0x01
   0137 12                  521 	ld	(de),a
                            522 ; genPlus
                            523 ; genPlusIncr
   0138 11 34 00            524 	ld	de,#_Initial_Load + 52
                            525 ; genAssign (pointer)
   013B 3E 01               526 	ld	a,#0x01
   013D 12                  527 	ld	(de),a
                            528 ; genPlus
                            529 ; genPlusIncr
   013E 11 35 00            530 	ld	de,#_Initial_Load + 53
                            531 ; genAssign (pointer)
   0141 3E 01               532 	ld	a,#0x01
   0143 12                  533 	ld	(de),a
                            534 ; genPlus
                            535 ; genPlusIncr
   0144 11 36 00            536 	ld	de,#_Initial_Load + 54
                            537 ; genAssign (pointer)
   0147 3E 01               538 	ld	a,#0x01
   0149 12                  539 	ld	(de),a
                            540 ; genPlus
                            541 ; genPlusIncr
   014A 11 37 00            542 	ld	de,#_Initial_Load + 55
                            543 ; genAssign (pointer)
   014D 3E 01               544 	ld	a,#0x01
   014F 12                  545 	ld	(de),a
                            546 ; genPlus
                            547 ; genPlusIncr
   0150 11 38 00            548 	ld	de,#_Initial_Load + 56
                            549 ; genAssign (pointer)
   0153 3E 01               550 	ld	a,#0x01
   0155 12                  551 	ld	(de),a
                            552 ; genPlus
                            553 ; genPlusIncr
   0156 11 39 00            554 	ld	de,#_Initial_Load + 57
                            555 ; genAssign (pointer)
   0159 3E 01               556 	ld	a,#0x01
   015B 12                  557 	ld	(de),a
                            558 ; genPlus
                            559 ; genPlusIncr
   015C 11 3A 00            560 	ld	de,#_Initial_Load + 58
                            561 ; genAssign (pointer)
   015F 3E 01               562 	ld	a,#0x01
   0161 12                  563 	ld	(de),a
                            564 ; genPlus
                            565 ; genPlusIncr
   0162 11 3B 00            566 	ld	de,#_Initial_Load + 59
                            567 ; genAssign (pointer)
   0165 3E 01               568 	ld	a,#0x01
   0167 12                  569 	ld	(de),a
                            570 ; genPlus
                            571 ; genPlusIncr
   0168 11 3C 00            572 	ld	de,#_Initial_Load + 60
                            573 ; genAssign (pointer)
   016B 3E 01               574 	ld	a,#0x01
   016D 12                  575 	ld	(de),a
                            576 ; genPlus
                            577 ; genPlusIncr
   016E 11 3D 00            578 	ld	de,#_Initial_Load + 61
                            579 ; genAssign (pointer)
   0171 3E 01               580 	ld	a,#0x01
   0173 12                  581 	ld	(de),a
                            582 ; genPlus
                            583 ; genPlusIncr
   0174 11 3E 00            584 	ld	de,#_Initial_Load + 62
                            585 ; genAssign (pointer)
   0177 3E 01               586 	ld	a,#0x01
   0179 12                  587 	ld	(de),a
                            588 ; genPlus
                            589 ; genPlusIncr
   017A 11 3F 00            590 	ld	de,#_Initial_Load + 63
                            591 ; genAssign (pointer)
   017D 3E 01               592 	ld	a,#0x01
   017F 12                  593 	ld	(de),a
                            594 ; genPlus
                            595 ; genPlusIncr
   0180 11 40 00            596 	ld	de,#_Initial_Load + 64
                            597 ; genAssign (pointer)
   0183 3E 01               598 	ld	a,#0x01
   0185 12                  599 	ld	(de),a
                            600 ; genPlus
                            601 ; genPlusIncr
   0186 11 41 00            602 	ld	de,#_Initial_Load + 65
                            603 ; genAssign (pointer)
   0189 3E 01               604 	ld	a,#0x01
   018B 12                  605 	ld	(de),a
                            606 ; genPlus
                            607 ; genPlusIncr
   018C 11 42 00            608 	ld	de,#_Initial_Load + 66
                            609 ; genAssign (pointer)
   018F 3E 01               610 	ld	a,#0x01
   0191 12                  611 	ld	(de),a
                            612 ; genPlus
                            613 ; genPlusIncr
   0192 11 43 00            614 	ld	de,#_Initial_Load + 67
                            615 ; genAssign (pointer)
   0195 3E 01               616 	ld	a,#0x01
   0197 12                  617 	ld	(de),a
                            618 ; genPlus
                            619 ; genPlusIncr
   0198 11 44 00            620 	ld	de,#_Initial_Load + 68
                            621 ; genAssign (pointer)
   019B 3E 01               622 	ld	a,#0x01
   019D 12                  623 	ld	(de),a
                            624 ; genPlus
                            625 ; genPlusIncr
   019E 11 45 00            626 	ld	de,#_Initial_Load + 69
                            627 ; genAssign (pointer)
   01A1 3E 01               628 	ld	a,#0x01
   01A3 12                  629 	ld	(de),a
                            630 ; genPlus
                            631 ; genPlusIncr
   01A4 11 46 00            632 	ld	de,#_Initial_Load + 70
                            633 ; genAssign (pointer)
   01A7 3E 01               634 	ld	a,#0x01
   01A9 12                  635 	ld	(de),a
                            636 ; genPlus
                            637 ; genPlusIncr
   01AA 11 47 00            638 	ld	de,#_Initial_Load + 71
                            639 ; genAssign (pointer)
   01AD 3E 01               640 	ld	a,#0x01
   01AF 12                  641 	ld	(de),a
                            642 ; genPlus
                            643 ; genPlusIncr
   01B0 11 48 00            644 	ld	de,#_Initial_Load + 72
                            645 ; genAssign (pointer)
   01B3 3E 01               646 	ld	a,#0x01
   01B5 12                  647 	ld	(de),a
                            648 ; genPlus
                            649 ; genPlusIncr
   01B6 11 49 00            650 	ld	de,#_Initial_Load + 73
                            651 ; genAssign (pointer)
   01B9 3E 01               652 	ld	a,#0x01
   01BB 12                  653 	ld	(de),a
                            654 ; genPlus
                            655 ; genPlusIncr
   01BC 11 4A 00            656 	ld	de,#_Initial_Load + 74
                            657 ; genAssign (pointer)
   01BF 3E 01               658 	ld	a,#0x01
   01C1 12                  659 	ld	(de),a
                            660 ; genPlus
                            661 ; genPlusIncr
   01C2 11 4B 00            662 	ld	de,#_Initial_Load + 75
                            663 ; genAssign (pointer)
   01C5 3E 01               664 	ld	a,#0x01
   01C7 12                  665 	ld	(de),a
                            666 ; genPlus
                            667 ; genPlusIncr
   01C8 11 4C 00            668 	ld	de,#_Initial_Load + 76
                            669 ; genAssign (pointer)
   01CB 3E 01               670 	ld	a,#0x01
   01CD 12                  671 	ld	(de),a
                            672 ; genPlus
                            673 ; genPlusIncr
   01CE 11 4D 00            674 	ld	de,#_Initial_Load + 77
                            675 ; genAssign (pointer)
   01D1 3E 01               676 	ld	a,#0x01
   01D3 12                  677 	ld	(de),a
                            678 ; genPlus
                            679 ; genPlusIncr
   01D4 11 4E 00            680 	ld	de,#_Initial_Load + 78
                            681 ; genAssign (pointer)
   01D7 3E 01               682 	ld	a,#0x01
   01D9 12                  683 	ld	(de),a
                            684 ; genPlus
                            685 ; genPlusIncr
   01DA 11 4F 00            686 	ld	de,#_Initial_Load + 79
                            687 ; genAssign (pointer)
   01DD 3E 01               688 	ld	a,#0x01
   01DF 12                  689 	ld	(de),a
                            690 ; genPlus
                            691 ; genPlusIncr
   01E0 11 50 00            692 	ld	de,#_Initial_Load + 80
                            693 ; genAssign (pointer)
   01E3 3E 01               694 	ld	a,#0x01
   01E5 12                  695 	ld	(de),a
                            696 ; genPlus
                            697 ; genPlusIncr
   01E6 11 51 00            698 	ld	de,#_Initial_Load + 81
                            699 ; genAssign (pointer)
   01E9 3E 01               700 	ld	a,#0x01
   01EB 12                  701 	ld	(de),a
                            702 ; genPlus
                            703 ; genPlusIncr
   01EC 11 52 00            704 	ld	de,#_Initial_Load + 82
                            705 ; genAssign (pointer)
   01EF 3E 01               706 	ld	a,#0x01
   01F1 12                  707 	ld	(de),a
                            708 ; genPlus
                            709 ; genPlusIncr
   01F2 11 53 00            710 	ld	de,#_Initial_Load + 83
                            711 ; genAssign (pointer)
   01F5 3E 01               712 	ld	a,#0x01
   01F7 12                  713 	ld	(de),a
                            714 ; genPlus
                            715 ; genPlusIncr
   01F8 11 54 00            716 	ld	de,#_Initial_Load + 84
                            717 ; genAssign (pointer)
   01FB 3E 01               718 	ld	a,#0x01
   01FD 12                  719 	ld	(de),a
                            720 ; genPlus
                            721 ; genPlusIncr
   01FE 11 55 00            722 	ld	de,#_Initial_Load + 85
                            723 ; genAssign (pointer)
   0201 3E 01               724 	ld	a,#0x01
   0203 12                  725 	ld	(de),a
                            726 ; genPlus
                            727 ; genPlusIncr
   0204 11 56 00            728 	ld	de,#_Initial_Load + 86
                            729 ; genAssign (pointer)
   0207 3E 01               730 	ld	a,#0x01
   0209 12                  731 	ld	(de),a
                            732 ; genPlus
                            733 ; genPlusIncr
   020A 11 57 00            734 	ld	de,#_Initial_Load + 87
                            735 ; genAssign (pointer)
   020D 3E 01               736 	ld	a,#0x01
   020F 12                  737 	ld	(de),a
                            738 ; genPlus
                            739 ; genPlusIncr
   0210 11 58 00            740 	ld	de,#_Initial_Load + 88
                            741 ; genAssign (pointer)
   0213 3E 01               742 	ld	a,#0x01
   0215 12                  743 	ld	(de),a
                            744 ; genPlus
                            745 ; genPlusIncr
   0216 11 59 00            746 	ld	de,#_Initial_Load + 89
                            747 ; genAssign (pointer)
   0219 3E 01               748 	ld	a,#0x01
   021B 12                  749 	ld	(de),a
                            750 ; genPlus
                            751 ; genPlusIncr
   021C 11 5A 00            752 	ld	de,#_Initial_Load + 90
                            753 ; genAssign (pointer)
   021F 3E 01               754 	ld	a,#0x01
   0221 12                  755 	ld	(de),a
                            756 ; genPlus
                            757 ; genPlusIncr
   0222 11 5B 00            758 	ld	de,#_Initial_Load + 91
                            759 ; genAssign (pointer)
   0225 3E 01               760 	ld	a,#0x01
   0227 12                  761 	ld	(de),a
                            762 ; genPlus
                            763 ; genPlusIncr
   0228 11 5C 00            764 	ld	de,#_Initial_Load + 92
                            765 ; genAssign (pointer)
   022B 3E 01               766 	ld	a,#0x01
   022D 12                  767 	ld	(de),a
                            768 ; genPlus
                            769 ; genPlusIncr
   022E 11 5D 00            770 	ld	de,#_Initial_Load + 93
                            771 ; genAssign (pointer)
   0231 3E 01               772 	ld	a,#0x01
   0233 12                  773 	ld	(de),a
                            774 ; genPlus
                            775 ; genPlusIncr
   0234 11 5E 00            776 	ld	de,#_Initial_Load + 94
                            777 ; genAssign (pointer)
   0237 3E 01               778 	ld	a,#0x01
   0239 12                  779 	ld	(de),a
                            780 ; genPlus
                            781 ; genPlusIncr
   023A 11 5F 00            782 	ld	de,#_Initial_Load + 95
                            783 ; genAssign (pointer)
   023D 3E 01               784 	ld	a,#0x01
   023F 12                  785 	ld	(de),a
                            786 ; genPlus
                            787 ; genPlusIncr
   0240 11 60 00            788 	ld	de,#_Initial_Load + 96
                            789 ; genAssign (pointer)
   0243 3E 01               790 	ld	a,#0x01
   0245 12                  791 	ld	(de),a
                            792 ; genPlus
                            793 ; genPlusIncr
   0246 11 61 00            794 	ld	de,#_Initial_Load + 97
                            795 ; genAssign (pointer)
   0249 3E 01               796 	ld	a,#0x01
   024B 12                  797 	ld	(de),a
                            798 ; genPlus
                            799 ; genPlusIncr
   024C 11 62 00            800 	ld	de,#_Initial_Load + 98
                            801 ; genAssign (pointer)
   024F 3E 01               802 	ld	a,#0x01
   0251 12                  803 	ld	(de),a
                            804 ; genPlus
                            805 ; genPlusIncr
   0252 11 63 00            806 	ld	de,#_Initial_Load + 99
                            807 ; genAssign (pointer)
   0255 3E 01               808 	ld	a,#0x01
   0257 12                  809 	ld	(de),a
                            810 ; genPlus
                            811 ; genPlusIncr
   0258 11 64 00            812 	ld	de,#_Initial_Load + 100
                            813 ; genAssign (pointer)
   025B 3E 01               814 	ld	a,#0x01
   025D 12                  815 	ld	(de),a
                            816 ; genPlus
                            817 ; genPlusIncr
   025E 11 65 00            818 	ld	de,#_Initial_Load + 101
                            819 ; genAssign (pointer)
   0261 3E 01               820 	ld	a,#0x01
   0263 12                  821 	ld	(de),a
                            822 ; genPlus
                            823 ; genPlusIncr
   0264 11 66 00            824 	ld	de,#_Initial_Load + 102
                            825 ; genAssign (pointer)
   0267 3E 01               826 	ld	a,#0x01
   0269 12                  827 	ld	(de),a
                            828 ; genPlus
                            829 ; genPlusIncr
   026A 11 67 00            830 	ld	de,#_Initial_Load + 103
                            831 ; genAssign (pointer)
   026D 3E 01               832 	ld	a,#0x01
   026F 12                  833 	ld	(de),a
                            834 ; genPlus
                            835 ; genPlusIncr
   0270 11 68 00            836 	ld	de,#_Initial_Load + 104
                            837 ; genAssign (pointer)
   0273 3E 01               838 	ld	a,#0x01
   0275 12                  839 	ld	(de),a
                            840 ; genPlus
                            841 ; genPlusIncr
   0276 11 69 00            842 	ld	de,#_Initial_Load + 105
                            843 ; genAssign (pointer)
   0279 3E 01               844 	ld	a,#0x01
   027B 12                  845 	ld	(de),a
                            846 ; genPlus
                            847 ; genPlusIncr
   027C 11 6A 00            848 	ld	de,#_Initial_Load + 106
                            849 ; genAssign (pointer)
   027F 3E 01               850 	ld	a,#0x01
   0281 12                  851 	ld	(de),a
                            852 ; genPlus
                            853 ; genPlusIncr
   0282 11 6B 00            854 	ld	de,#_Initial_Load + 107
                            855 ; genAssign (pointer)
   0285 3E 01               856 	ld	a,#0x01
   0287 12                  857 	ld	(de),a
                            858 ; genPlus
                            859 ; genPlusIncr
   0288 11 6C 00            860 	ld	de,#_Initial_Load + 108
                            861 ; genAssign (pointer)
   028B 3E 01               862 	ld	a,#0x01
   028D 12                  863 	ld	(de),a
                            864 ; genPlus
                            865 ; genPlusIncr
   028E 11 6D 00            866 	ld	de,#_Initial_Load + 109
                            867 ; genAssign (pointer)
   0291 3E 01               868 	ld	a,#0x01
   0293 12                  869 	ld	(de),a
                            870 ; genPlus
                            871 ; genPlusIncr
   0294 11 6E 00            872 	ld	de,#_Initial_Load + 110
                            873 ; genAssign (pointer)
   0297 3E 01               874 	ld	a,#0x01
   0299 12                  875 	ld	(de),a
                            876 ; genPlus
                            877 ; genPlusIncr
   029A 11 6F 00            878 	ld	de,#_Initial_Load + 111
                            879 ; genAssign (pointer)
   029D 3E 01               880 	ld	a,#0x01
   029F 12                  881 	ld	(de),a
                            882 ; genPlus
                            883 ; genPlusIncr
   02A0 11 70 00            884 	ld	de,#_Initial_Load + 112
                            885 ; genAssign (pointer)
   02A3 3E 01               886 	ld	a,#0x01
   02A5 12                  887 	ld	(de),a
                            888 ; genPlus
                            889 ; genPlusIncr
   02A6 11 71 00            890 	ld	de,#_Initial_Load + 113
                            891 ; genAssign (pointer)
   02A9 3E 01               892 	ld	a,#0x01
   02AB 12                  893 	ld	(de),a
                            894 ; genPlus
                            895 ; genPlusIncr
   02AC 11 72 00            896 	ld	de,#_Initial_Load + 114
                            897 ; genAssign (pointer)
   02AF 3E 01               898 	ld	a,#0x01
   02B1 12                  899 	ld	(de),a
                            900 ; genPlus
                            901 ; genPlusIncr
   02B2 11 73 00            902 	ld	de,#_Initial_Load + 115
                            903 ; genAssign (pointer)
   02B5 3E 01               904 	ld	a,#0x01
   02B7 12                  905 	ld	(de),a
                            906 ; genPlus
                            907 ; genPlusIncr
   02B8 11 74 00            908 	ld	de,#_Initial_Load + 116
                            909 ; genAssign (pointer)
   02BB 3E 01               910 	ld	a,#0x01
   02BD 12                  911 	ld	(de),a
                            912 ; genPlus
                            913 ; genPlusIncr
   02BE 11 75 00            914 	ld	de,#_Initial_Load + 117
                            915 ; genAssign (pointer)
   02C1 3E 01               916 	ld	a,#0x01
   02C3 12                  917 	ld	(de),a
                            918 ; genPlus
                            919 ; genPlusIncr
   02C4 11 76 00            920 	ld	de,#_Initial_Load + 118
                            921 ; genAssign (pointer)
   02C7 3E 01               922 	ld	a,#0x01
   02C9 12                  923 	ld	(de),a
                            924 ; genPlus
                            925 ; genPlusIncr
   02CA 11 77 00            926 	ld	de,#_Initial_Load + 119
                            927 ; genAssign (pointer)
   02CD 3E 01               928 	ld	a,#0x01
   02CF 12                  929 	ld	(de),a
                            930 ; genPlus
                            931 ; genPlusIncr
   02D0 11 78 00            932 	ld	de,#_Initial_Load + 120
                            933 ; genAssign (pointer)
   02D3 3E 01               934 	ld	a,#0x01
   02D5 12                  935 	ld	(de),a
                            936 ; genPlus
                            937 ; genPlusIncr
   02D6 11 79 00            938 	ld	de,#_Initial_Load + 121
                            939 ; genAssign (pointer)
   02D9 3E 01               940 	ld	a,#0x01
   02DB 12                  941 	ld	(de),a
                            942 ; genPlus
                            943 ; genPlusIncr
   02DC 11 7A 00            944 	ld	de,#_Initial_Load + 122
                            945 ; genAssign (pointer)
   02DF 3E 01               946 	ld	a,#0x01
   02E1 12                  947 	ld	(de),a
                            948 ; genPlus
                            949 ; genPlusIncr
   02E2 11 7B 00            950 	ld	de,#_Initial_Load + 123
                            951 ; genAssign (pointer)
   02E5 3E 01               952 	ld	a,#0x01
   02E7 12                  953 	ld	(de),a
                            954 ; genPlus
                            955 ; genPlusIncr
   02E8 11 7C 00            956 	ld	de,#_Initial_Load + 124
                            957 ; genAssign (pointer)
   02EB 3E 01               958 	ld	a,#0x01
   02ED 12                  959 	ld	(de),a
                            960 ; genPlus
                            961 ; genPlusIncr
   02EE 11 7D 00            962 	ld	de,#_Initial_Load + 125
                            963 ; genAssign (pointer)
   02F1 3E 01               964 	ld	a,#0x01
   02F3 12                  965 	ld	(de),a
                            966 ; genPlus
                            967 ; genPlusIncr
   02F4 11 7E 00            968 	ld	de,#_Initial_Load + 126
                            969 ; genAssign (pointer)
   02F7 3E 01               970 	ld	a,#0x01
   02F9 12                  971 	ld	(de),a
                            972 ; genPlus
                            973 ; genPlusIncr
   02FA 11 7F 00            974 	ld	de,#_Initial_Load + 127
                            975 ; genAssign (pointer)
   02FD 3E 01               976 	ld	a,#0x01
   02FF 12                  977 	ld	(de),a
                            978 ; genPlus
                            979 ; genPlusIncr
   0300 11 80 00            980 	ld	de,#_Initial_Load + 128
                            981 ; genAssign (pointer)
   0303 3E 01               982 	ld	a,#0x01
   0305 12                  983 	ld	(de),a
                            984 ; genPlus
                            985 ; genPlusIncr
   0306 11 81 00            986 	ld	de,#_Initial_Load + 129
                            987 ; genAssign (pointer)
   0309 3E 01               988 	ld	a,#0x01
   030B 12                  989 	ld	(de),a
                            990 ; genPlus
                            991 ; genPlusIncr
   030C 11 82 00            992 	ld	de,#_Initial_Load + 130
                            993 ; genAssign (pointer)
   030F 3E 01               994 	ld	a,#0x01
   0311 12                  995 	ld	(de),a
                            996 ; genPlus
                            997 ; genPlusIncr
   0312 11 83 00            998 	ld	de,#_Initial_Load + 131
                            999 ; genAssign (pointer)
   0315 3E 01              1000 	ld	a,#0x01
   0317 12                 1001 	ld	(de),a
                           1002 ; genPlus
                           1003 ; genPlusIncr
   0318 11 84 00           1004 	ld	de,#_Initial_Load + 132
                           1005 ; genAssign (pointer)
   031B 3E 01              1006 	ld	a,#0x01
   031D 12                 1007 	ld	(de),a
                           1008 ; genPlus
                           1009 ; genPlusIncr
   031E 11 85 00           1010 	ld	de,#_Initial_Load + 133
                           1011 ; genAssign (pointer)
   0321 3E 01              1012 	ld	a,#0x01
   0323 12                 1013 	ld	(de),a
                           1014 ; genPlus
                           1015 ; genPlusIncr
   0324 11 86 00           1016 	ld	de,#_Initial_Load + 134
                           1017 ; genAssign (pointer)
   0327 3E 01              1018 	ld	a,#0x01
   0329 12                 1019 	ld	(de),a
                           1020 ; genPlus
                           1021 ; genPlusIncr
   032A 11 87 00           1022 	ld	de,#_Initial_Load + 135
                           1023 ; genAssign (pointer)
   032D 3E 01              1024 	ld	a,#0x01
   032F 12                 1025 	ld	(de),a
                           1026 ; genPlus
                           1027 ; genPlusIncr
   0330 11 88 00           1028 	ld	de,#_Initial_Load + 136
                           1029 ; genAssign (pointer)
   0333 3E 01              1030 	ld	a,#0x01
   0335 12                 1031 	ld	(de),a
                           1032 ; genPlus
                           1033 ; genPlusIncr
   0336 11 89 00           1034 	ld	de,#_Initial_Load + 137
                           1035 ; genAssign (pointer)
   0339 3E 01              1036 	ld	a,#0x01
   033B 12                 1037 	ld	(de),a
                           1038 ; genPlus
                           1039 ; genPlusIncr
   033C 11 8A 00           1040 	ld	de,#_Initial_Load + 138
                           1041 ; genAssign (pointer)
   033F 3E 01              1042 	ld	a,#0x01
   0341 12                 1043 	ld	(de),a
                           1044 ; genPlus
                           1045 ; genPlusIncr
   0342 11 8B 00           1046 	ld	de,#_Initial_Load + 139
                           1047 ; genAssign (pointer)
   0345 3E 01              1048 	ld	a,#0x01
   0347 12                 1049 	ld	(de),a
                           1050 ; genPlus
                           1051 ; genPlusIncr
   0348 11 8C 00           1052 	ld	de,#_Initial_Load + 140
                           1053 ; genAssign (pointer)
   034B 3E 01              1054 	ld	a,#0x01
   034D 12                 1055 	ld	(de),a
                           1056 ; genPlus
                           1057 ; genPlusIncr
   034E 11 8D 00           1058 	ld	de,#_Initial_Load + 141
                           1059 ; genAssign (pointer)
   0351 3E 01              1060 	ld	a,#0x01
   0353 12                 1061 	ld	(de),a
                           1062 ; genPlus
                           1063 ; genPlusIncr
   0354 11 8E 00           1064 	ld	de,#_Initial_Load + 142
                           1065 ; genAssign (pointer)
   0357 3E 01              1066 	ld	a,#0x01
   0359 12                 1067 	ld	(de),a
                           1068 ; genPlus
                           1069 ; genPlusIncr
   035A 11 8F 00           1070 	ld	de,#_Initial_Load + 143
                           1071 ; genAssign (pointer)
   035D 3E 01              1072 	ld	a,#0x01
   035F 12                 1073 	ld	(de),a
                           1074 ; genPlus
                           1075 ; genPlusIncr
   0360 11 90 00           1076 	ld	de,#_Initial_Load + 144
                           1077 ; genAssign (pointer)
   0363 3E 01              1078 	ld	a,#0x01
   0365 12                 1079 	ld	(de),a
                           1080 ; genPlus
                           1081 ; genPlusIncr
   0366 11 91 00           1082 	ld	de,#_Initial_Load + 145
                           1083 ; genAssign (pointer)
   0369 3E 01              1084 	ld	a,#0x01
   036B 12                 1085 	ld	(de),a
                           1086 ; genPlus
                           1087 ; genPlusIncr
   036C 11 92 00           1088 	ld	de,#_Initial_Load + 146
                           1089 ; genAssign (pointer)
   036F 3E 01              1090 	ld	a,#0x01
   0371 12                 1091 	ld	(de),a
                           1092 ; genPlus
                           1093 ; genPlusIncr
   0372 11 93 00           1094 	ld	de,#_Initial_Load + 147
                           1095 ; genAssign (pointer)
   0375 3E 01              1096 	ld	a,#0x01
   0377 12                 1097 	ld	(de),a
                           1098 ; genPlus
                           1099 ; genPlusIncr
   0378 11 94 00           1100 	ld	de,#_Initial_Load + 148
                           1101 ; genAssign (pointer)
   037B 3E 01              1102 	ld	a,#0x01
   037D 12                 1103 	ld	(de),a
                           1104 ; genPlus
                           1105 ; genPlusIncr
   037E 11 95 00           1106 	ld	de,#_Initial_Load + 149
                           1107 ; genAssign (pointer)
   0381 3E 01              1108 	ld	a,#0x01
   0383 12                 1109 	ld	(de),a
                           1110 ; genPlus
                           1111 ; genPlusIncr
   0384 11 96 00           1112 	ld	de,#_Initial_Load + 150
                           1113 ; genAssign (pointer)
   0387 3E 01              1114 	ld	a,#0x01
   0389 12                 1115 	ld	(de),a
                           1116 ; genPlus
                           1117 ; genPlusIncr
   038A 11 97 00           1118 	ld	de,#_Initial_Load + 151
                           1119 ; genAssign (pointer)
   038D 3E 01              1120 	ld	a,#0x01
   038F 12                 1121 	ld	(de),a
                           1122 ; genPlus
                           1123 ; genPlusIncr
   0390 11 98 00           1124 	ld	de,#_Initial_Load + 152
                           1125 ; genAssign (pointer)
   0393 3E 01              1126 	ld	a,#0x01
   0395 12                 1127 	ld	(de),a
                           1128 ; genPlus
                           1129 ; genPlusIncr
   0396 11 99 00           1130 	ld	de,#_Initial_Load + 153
                           1131 ; genAssign (pointer)
   0399 3E 01              1132 	ld	a,#0x01
   039B 12                 1133 	ld	(de),a
                           1134 ; genPlus
                           1135 ; genPlusIncr
   039C 11 9A 00           1136 	ld	de,#_Initial_Load + 154
                           1137 ; genAssign (pointer)
   039F 3E 01              1138 	ld	a,#0x01
   03A1 12                 1139 	ld	(de),a
                           1140 ; genPlus
                           1141 ; genPlusIncr
   03A2 11 9B 00           1142 	ld	de,#_Initial_Load + 155
                           1143 ; genAssign (pointer)
   03A5 3E 01              1144 	ld	a,#0x01
   03A7 12                 1145 	ld	(de),a
                           1146 ; genPlus
                           1147 ; genPlusIncr
   03A8 11 9C 00           1148 	ld	de,#_Initial_Load + 156
                           1149 ; genAssign (pointer)
   03AB 3E 01              1150 	ld	a,#0x01
   03AD 12                 1151 	ld	(de),a
                           1152 ; genPlus
                           1153 ; genPlusIncr
   03AE 11 9D 00           1154 	ld	de,#_Initial_Load + 157
                           1155 ; genAssign (pointer)
   03B1 3E 01              1156 	ld	a,#0x01
   03B3 12                 1157 	ld	(de),a
                           1158 ; genPlus
                           1159 ; genPlusIncr
   03B4 11 9E 00           1160 	ld	de,#_Initial_Load + 158
                           1161 ; genAssign (pointer)
   03B7 3E 01              1162 	ld	a,#0x01
   03B9 12                 1163 	ld	(de),a
                           1164 ; genPlus
                           1165 ; genPlusIncr
   03BA 11 9F 00           1166 	ld	de,#_Initial_Load + 159
                           1167 ; genAssign (pointer)
   03BD 3E 01              1168 	ld	a,#0x01
   03BF 12                 1169 	ld	(de),a
                           1170 ; genPlus
                           1171 ; genPlusIncr
   03C0 11 A0 00           1172 	ld	de,#_Initial_Load + 160
                           1173 ; genAssign (pointer)
   03C3 3E 01              1174 	ld	a,#0x01
   03C5 12                 1175 	ld	(de),a
                           1176 ; genPlus
                           1177 ; genPlusIncr
   03C6 11 A1 00           1178 	ld	de,#_Initial_Load + 161
                           1179 ; genAssign (pointer)
   03C9 3E 01              1180 	ld	a,#0x01
   03CB 12                 1181 	ld	(de),a
                           1182 ; genPlus
                           1183 ; genPlusIncr
   03CC 11 A2 00           1184 	ld	de,#_Initial_Load + 162
                           1185 ; genAssign (pointer)
   03CF 3E 01              1186 	ld	a,#0x01
   03D1 12                 1187 	ld	(de),a
                           1188 ; genPlus
                           1189 ; genPlusIncr
   03D2 11 A3 00           1190 	ld	de,#_Initial_Load + 163
                           1191 ; genAssign (pointer)
   03D5 3E 01              1192 	ld	a,#0x01
   03D7 12                 1193 	ld	(de),a
                           1194 ; genPlus
                           1195 ; genPlusIncr
   03D8 11 A4 00           1196 	ld	de,#_Initial_Load + 164
                           1197 ; genAssign (pointer)
   03DB 3E 01              1198 	ld	a,#0x01
   03DD 12                 1199 	ld	(de),a
                           1200 ; genPlus
                           1201 ; genPlusIncr
   03DE 11 A5 00           1202 	ld	de,#_Initial_Load + 165
                           1203 ; genAssign (pointer)
   03E1 3E 01              1204 	ld	a,#0x01
   03E3 12                 1205 	ld	(de),a
                           1206 ; genPlus
                           1207 ; genPlusIncr
   03E4 11 A6 00           1208 	ld	de,#_Initial_Load + 166
                           1209 ; genAssign (pointer)
   03E7 3E 01              1210 	ld	a,#0x01
   03E9 12                 1211 	ld	(de),a
                           1212 ; genPlus
                           1213 ; genPlusIncr
   03EA 11 A7 00           1214 	ld	de,#_Initial_Load + 167
                           1215 ; genAssign (pointer)
   03ED 3E 01              1216 	ld	a,#0x01
   03EF 12                 1217 	ld	(de),a
                           1218 ; genPlus
                           1219 ; genPlusIncr
   03F0 11 A8 00           1220 	ld	de,#_Initial_Load + 168
                           1221 ; genAssign (pointer)
   03F3 3E 01              1222 	ld	a,#0x01
   03F5 12                 1223 	ld	(de),a
                           1224 ; genPlus
                           1225 ; genPlusIncr
   03F6 11 A9 00           1226 	ld	de,#_Initial_Load + 169
                           1227 ; genAssign (pointer)
   03F9 3E 01              1228 	ld	a,#0x01
   03FB 12                 1229 	ld	(de),a
                           1230 ; genPlus
                           1231 ; genPlusIncr
   03FC 11 AA 00           1232 	ld	de,#_Initial_Load + 170
                           1233 ; genAssign (pointer)
   03FF 3E 01              1234 	ld	a,#0x01
   0401 12                 1235 	ld	(de),a
                           1236 ; genPlus
                           1237 ; genPlusIncr
   0402 11 AB 00           1238 	ld	de,#_Initial_Load + 171
                           1239 ; genAssign (pointer)
   0405 3E 01              1240 	ld	a,#0x01
   0407 12                 1241 	ld	(de),a
                           1242 ; genPlus
                           1243 ; genPlusIncr
   0408 11 AC 00           1244 	ld	de,#_Initial_Load + 172
                           1245 ; genAssign (pointer)
   040B 3E 01              1246 	ld	a,#0x01
   040D 12                 1247 	ld	(de),a
                           1248 ; genPlus
                           1249 ; genPlusIncr
   040E 11 AD 00           1250 	ld	de,#_Initial_Load + 173
                           1251 ; genAssign (pointer)
   0411 3E 01              1252 	ld	a,#0x01
   0413 12                 1253 	ld	(de),a
                           1254 ; genPlus
                           1255 ; genPlusIncr
   0414 11 AE 00           1256 	ld	de,#_Initial_Load + 174
                           1257 ; genAssign (pointer)
   0417 3E 01              1258 	ld	a,#0x01
   0419 12                 1259 	ld	(de),a
                           1260 ; genPlus
                           1261 ; genPlusIncr
   041A 11 AF 00           1262 	ld	de,#_Initial_Load + 175
                           1263 ; genAssign (pointer)
   041D 3E 01              1264 	ld	a,#0x01
   041F 12                 1265 	ld	(de),a
                           1266 ; genPlus
                           1267 ; genPlusIncr
   0420 11 B0 00           1268 	ld	de,#_Initial_Load + 176
                           1269 ; genAssign (pointer)
   0423 3E 01              1270 	ld	a,#0x01
   0425 12                 1271 	ld	(de),a
                           1272 ; genPlus
                           1273 ; genPlusIncr
   0426 11 B1 00           1274 	ld	de,#_Initial_Load + 177
                           1275 ; genAssign (pointer)
   0429 3E 01              1276 	ld	a,#0x01
   042B 12                 1277 	ld	(de),a
                           1278 ; genPlus
                           1279 ; genPlusIncr
   042C 11 B2 00           1280 	ld	de,#_Initial_Load + 178
                           1281 ; genAssign (pointer)
   042F 3E 01              1282 	ld	a,#0x01
   0431 12                 1283 	ld	(de),a
                           1284 ; genPlus
                           1285 ; genPlusIncr
   0432 11 B3 00           1286 	ld	de,#_Initial_Load + 179
                           1287 ; genAssign (pointer)
   0435 3E 01              1288 	ld	a,#0x01
   0437 12                 1289 	ld	(de),a
                           1290 ; genPlus
                           1291 ; genPlusIncr
   0438 11 B4 00           1292 	ld	de,#_Initial_Load + 180
                           1293 ; genAssign (pointer)
   043B 3E 01              1294 	ld	a,#0x01
   043D 12                 1295 	ld	(de),a
                           1296 ; genPlus
                           1297 ; genPlusIncr
   043E 11 B5 00           1298 	ld	de,#_Initial_Load + 181
                           1299 ; genAssign (pointer)
   0441 3E 01              1300 	ld	a,#0x01
   0443 12                 1301 	ld	(de),a
                           1302 ; genPlus
                           1303 ; genPlusIncr
   0444 11 B6 00           1304 	ld	de,#_Initial_Load + 182
                           1305 ; genAssign (pointer)
   0447 3E 01              1306 	ld	a,#0x01
   0449 12                 1307 	ld	(de),a
                           1308 ; genPlus
                           1309 ; genPlusIncr
   044A 11 B7 00           1310 	ld	de,#_Initial_Load + 183
                           1311 ; genAssign (pointer)
   044D 3E 01              1312 	ld	a,#0x01
   044F 12                 1313 	ld	(de),a
                           1314 ; genPlus
                           1315 ; genPlusIncr
   0450 11 B8 00           1316 	ld	de,#_Initial_Load + 184
                           1317 ; genAssign (pointer)
   0453 3E 01              1318 	ld	a,#0x01
   0455 12                 1319 	ld	(de),a
                           1320 ; genPlus
                           1321 ; genPlusIncr
   0456 11 B9 00           1322 	ld	de,#_Initial_Load + 185
                           1323 ; genAssign (pointer)
   0459 3E 01              1324 	ld	a,#0x01
   045B 12                 1325 	ld	(de),a
                           1326 ; genPlus
                           1327 ; genPlusIncr
   045C 11 BA 00           1328 	ld	de,#_Initial_Load + 186
                           1329 ; genAssign (pointer)
   045F 3E 01              1330 	ld	a,#0x01
   0461 12                 1331 	ld	(de),a
                           1332 ; genPlus
                           1333 ; genPlusIncr
   0462 11 BB 00           1334 	ld	de,#_Initial_Load + 187
                           1335 ; genAssign (pointer)
   0465 3E 01              1336 	ld	a,#0x01
   0467 12                 1337 	ld	(de),a
                           1338 ; genPlus
                           1339 ; genPlusIncr
   0468 11 BC 00           1340 	ld	de,#_Initial_Load + 188
                           1341 ; genAssign (pointer)
   046B 3E 01              1342 	ld	a,#0x01
   046D 12                 1343 	ld	(de),a
                           1344 ; genPlus
                           1345 ; genPlusIncr
   046E 11 BD 00           1346 	ld	de,#_Initial_Load + 189
                           1347 ; genAssign (pointer)
   0471 3E 01              1348 	ld	a,#0x01
   0473 12                 1349 	ld	(de),a
                           1350 ; genPlus
                           1351 ; genPlusIncr
   0474 11 BE 00           1352 	ld	de,#_Initial_Load + 190
                           1353 ; genAssign (pointer)
   0477 3E 01              1354 	ld	a,#0x01
   0479 12                 1355 	ld	(de),a
                           1356 ; genPlus
                           1357 ; genPlusIncr
   047A 11 BF 00           1358 	ld	de,#_Initial_Load + 191
                           1359 ; genAssign (pointer)
   047D 3E 01              1360 	ld	a,#0x01
   047F 12                 1361 	ld	(de),a
                           1362 ; genPlus
                           1363 ; genPlusIncr
   0480 11 C0 00           1364 	ld	de,#_Initial_Load + 192
                           1365 ; genAssign (pointer)
   0483 3E 01              1366 	ld	a,#0x01
   0485 12                 1367 	ld	(de),a
                           1368 ; genPlus
                           1369 ; genPlusIncr
   0486 11 C1 00           1370 	ld	de,#_Initial_Load + 193
                           1371 ; genAssign (pointer)
   0489 3E 01              1372 	ld	a,#0x01
   048B 12                 1373 	ld	(de),a
                           1374 ; genPlus
                           1375 ; genPlusIncr
   048C 11 C2 00           1376 	ld	de,#_Initial_Load + 194
                           1377 ; genAssign (pointer)
   048F 3E 01              1378 	ld	a,#0x01
   0491 12                 1379 	ld	(de),a
                           1380 ; genPlus
                           1381 ; genPlusIncr
   0492 11 C3 00           1382 	ld	de,#_Initial_Load + 195
                           1383 ; genAssign (pointer)
   0495 3E 01              1384 	ld	a,#0x01
   0497 12                 1385 	ld	(de),a
                           1386 ; genPlus
                           1387 ; genPlusIncr
   0498 11 C4 00           1388 	ld	de,#_Initial_Load + 196
                           1389 ; genAssign (pointer)
   049B 3E 01              1390 	ld	a,#0x01
   049D 12                 1391 	ld	(de),a
                           1392 ; genPlus
                           1393 ; genPlusIncr
   049E 11 C5 00           1394 	ld	de,#_Initial_Load + 197
                           1395 ; genAssign (pointer)
   04A1 3E 01              1396 	ld	a,#0x01
   04A3 12                 1397 	ld	(de),a
                           1398 ; genPlus
                           1399 ; genPlusIncr
   04A4 11 C6 00           1400 	ld	de,#_Initial_Load + 198
                           1401 ; genAssign (pointer)
   04A7 3E 01              1402 	ld	a,#0x01
   04A9 12                 1403 	ld	(de),a
                           1404 ; genPlus
                           1405 ; genPlusIncr
   04AA 11 C7 00           1406 	ld	de,#_Initial_Load + 199
                           1407 ; genAssign (pointer)
   04AD 3E 01              1408 	ld	a,#0x01
   04AF 12                 1409 	ld	(de),a
                           1410 ; genPlus
                           1411 ; genPlusIncr
   04B0 11 C8 00           1412 	ld	de,#_Initial_Load + 200
                           1413 ; genAssign (pointer)
   04B3 3E 01              1414 	ld	a,#0x01
   04B5 12                 1415 	ld	(de),a
                           1416 ; genPlus
                           1417 ; genPlusIncr
   04B6 11 C9 00           1418 	ld	de,#_Initial_Load + 201
                           1419 ; genAssign (pointer)
   04B9 3E 01              1420 	ld	a,#0x01
   04BB 12                 1421 	ld	(de),a
                           1422 ; genPlus
                           1423 ; genPlusIncr
   04BC 11 CA 00           1424 	ld	de,#_Initial_Load + 202
                           1425 ; genAssign (pointer)
   04BF 3E 01              1426 	ld	a,#0x01
   04C1 12                 1427 	ld	(de),a
                           1428 ; genPlus
                           1429 ; genPlusIncr
   04C2 11 CB 00           1430 	ld	de,#_Initial_Load + 203
                           1431 ; genAssign (pointer)
   04C5 3E 01              1432 	ld	a,#0x01
   04C7 12                 1433 	ld	(de),a
                           1434 ; genPlus
                           1435 ; genPlusIncr
   04C8 11 CC 00           1436 	ld	de,#_Initial_Load + 204
                           1437 ; genAssign (pointer)
   04CB 3E 01              1438 	ld	a,#0x01
   04CD 12                 1439 	ld	(de),a
                           1440 ; genPlus
                           1441 ; genPlusIncr
   04CE 11 CD 00           1442 	ld	de,#_Initial_Load + 205
                           1443 ; genAssign (pointer)
   04D1 3E 01              1444 	ld	a,#0x01
   04D3 12                 1445 	ld	(de),a
                           1446 ; genPlus
                           1447 ; genPlusIncr
   04D4 11 CE 00           1448 	ld	de,#_Initial_Load + 206
                           1449 ; genAssign (pointer)
   04D7 3E 01              1450 	ld	a,#0x01
   04D9 12                 1451 	ld	(de),a
                           1452 ; genPlus
                           1453 ; genPlusIncr
   04DA 11 CF 00           1454 	ld	de,#_Initial_Load + 207
                           1455 ; genAssign (pointer)
   04DD 3E 01              1456 	ld	a,#0x01
   04DF 12                 1457 	ld	(de),a
                           1458 ; genPlus
                           1459 ; genPlusIncr
   04E0 11 D0 00           1460 	ld	de,#_Initial_Load + 208
                           1461 ; genAssign (pointer)
   04E3 3E 01              1462 	ld	a,#0x01
   04E5 12                 1463 	ld	(de),a
                           1464 ; genPlus
                           1465 ; genPlusIncr
   04E6 11 D1 00           1466 	ld	de,#_Initial_Load + 209
                           1467 ; genAssign (pointer)
   04E9 3E 01              1468 	ld	a,#0x01
   04EB 12                 1469 	ld	(de),a
                           1470 ; genPlus
                           1471 ; genPlusIncr
   04EC 11 D2 00           1472 	ld	de,#_Initial_Load + 210
                           1473 ; genAssign (pointer)
   04EF 3E 01              1474 	ld	a,#0x01
   04F1 12                 1475 	ld	(de),a
                           1476 ; genPlus
                           1477 ; genPlusIncr
   04F2 11 D3 00           1478 	ld	de,#_Initial_Load + 211
                           1479 ; genAssign (pointer)
   04F5 3E 01              1480 	ld	a,#0x01
   04F7 12                 1481 	ld	(de),a
                           1482 ; genPlus
                           1483 ; genPlusIncr
   04F8 11 D4 00           1484 	ld	de,#_Initial_Load + 212
                           1485 ; genAssign (pointer)
   04FB 3E 01              1486 	ld	a,#0x01
   04FD 12                 1487 	ld	(de),a
                           1488 ; genPlus
                           1489 ; genPlusIncr
   04FE 11 D5 00           1490 	ld	de,#_Initial_Load + 213
                           1491 ; genAssign (pointer)
   0501 3E 01              1492 	ld	a,#0x01
   0503 12                 1493 	ld	(de),a
                           1494 ; genPlus
                           1495 ; genPlusIncr
   0504 11 D6 00           1496 	ld	de,#_Initial_Load + 214
                           1497 ; genAssign (pointer)
   0507 3E 01              1498 	ld	a,#0x01
   0509 12                 1499 	ld	(de),a
                           1500 ; genPlus
                           1501 ; genPlusIncr
   050A 11 D7 00           1502 	ld	de,#_Initial_Load + 215
                           1503 ; genAssign (pointer)
   050D 3E 01              1504 	ld	a,#0x01
   050F 12                 1505 	ld	(de),a
                           1506 ; genPlus
                           1507 ; genPlusIncr
   0510 11 D8 00           1508 	ld	de,#_Initial_Load + 216
                           1509 ; genAssign (pointer)
   0513 3E 01              1510 	ld	a,#0x01
   0515 12                 1511 	ld	(de),a
                           1512 ; genPlus
                           1513 ; genPlusIncr
   0516 11 D9 00           1514 	ld	de,#_Initial_Load + 217
                           1515 ; genAssign (pointer)
   0519 3E 01              1516 	ld	a,#0x01
   051B 12                 1517 	ld	(de),a
                           1518 ; genPlus
                           1519 ; genPlusIncr
   051C 11 DA 00           1520 	ld	de,#_Initial_Load + 218
                           1521 ; genAssign (pointer)
   051F 3E 01              1522 	ld	a,#0x01
   0521 12                 1523 	ld	(de),a
                           1524 ; genPlus
                           1525 ; genPlusIncr
   0522 11 DB 00           1526 	ld	de,#_Initial_Load + 219
                           1527 ; genAssign (pointer)
   0525 3E 01              1528 	ld	a,#0x01
   0527 12                 1529 	ld	(de),a
                           1530 ; genPlus
                           1531 ; genPlusIncr
   0528 11 DC 00           1532 	ld	de,#_Initial_Load + 220
                           1533 ; genAssign (pointer)
   052B 3E 01              1534 	ld	a,#0x01
   052D 12                 1535 	ld	(de),a
                           1536 ; genPlus
                           1537 ; genPlusIncr
   052E 11 DD 00           1538 	ld	de,#_Initial_Load + 221
                           1539 ; genAssign (pointer)
   0531 3E 01              1540 	ld	a,#0x01
   0533 12                 1541 	ld	(de),a
                           1542 ; genPlus
                           1543 ; genPlusIncr
   0534 11 DE 00           1544 	ld	de,#_Initial_Load + 222
                           1545 ; genAssign (pointer)
   0537 3E 01              1546 	ld	a,#0x01
   0539 12                 1547 	ld	(de),a
                           1548 ; genPlus
                           1549 ; genPlusIncr
   053A 11 DF 00           1550 	ld	de,#_Initial_Load + 223
                           1551 ; genAssign (pointer)
   053D 3E 01              1552 	ld	a,#0x01
   053F 12                 1553 	ld	(de),a
                           1554 ; genPlus
                           1555 ; genPlusIncr
   0540 11 E0 00           1556 	ld	de,#_Initial_Load + 224
                           1557 ; genAssign (pointer)
   0543 3E 01              1558 	ld	a,#0x01
   0545 12                 1559 	ld	(de),a
                           1560 ; genPlus
                           1561 ; genPlusIncr
   0546 11 E1 00           1562 	ld	de,#_Initial_Load + 225
                           1563 ; genAssign (pointer)
   0549 3E 01              1564 	ld	a,#0x01
   054B 12                 1565 	ld	(de),a
                           1566 ; genPlus
                           1567 ; genPlusIncr
   054C 11 E2 00           1568 	ld	de,#_Initial_Load + 226
                           1569 ; genAssign (pointer)
   054F 3E 01              1570 	ld	a,#0x01
   0551 12                 1571 	ld	(de),a
                           1572 ; genPlus
                           1573 ; genPlusIncr
   0552 11 E3 00           1574 	ld	de,#_Initial_Load + 227
                           1575 ; genAssign (pointer)
   0555 3E 01              1576 	ld	a,#0x01
   0557 12                 1577 	ld	(de),a
                           1578 ; genPlus
                           1579 ; genPlusIncr
   0558 11 E4 00           1580 	ld	de,#_Initial_Load + 228
                           1581 ; genAssign (pointer)
   055B 3E 01              1582 	ld	a,#0x01
   055D 12                 1583 	ld	(de),a
                           1584 ; genPlus
                           1585 ; genPlusIncr
   055E 11 E5 00           1586 	ld	de,#_Initial_Load + 229
                           1587 ; genAssign (pointer)
   0561 3E 01              1588 	ld	a,#0x01
   0563 12                 1589 	ld	(de),a
                           1590 ; genPlus
                           1591 ; genPlusIncr
   0564 11 E6 00           1592 	ld	de,#_Initial_Load + 230
                           1593 ; genAssign (pointer)
   0567 3E 01              1594 	ld	a,#0x01
   0569 12                 1595 	ld	(de),a
                           1596 ; genPlus
                           1597 ; genPlusIncr
   056A 11 E7 00           1598 	ld	de,#_Initial_Load + 231
                           1599 ; genAssign (pointer)
   056D 3E 01              1600 	ld	a,#0x01
   056F 12                 1601 	ld	(de),a
                           1602 ; genPlus
                           1603 ; genPlusIncr
   0570 11 E8 00           1604 	ld	de,#_Initial_Load + 232
                           1605 ; genAssign (pointer)
   0573 3E 01              1606 	ld	a,#0x01
   0575 12                 1607 	ld	(de),a
                           1608 ; genPlus
                           1609 ; genPlusIncr
   0576 11 E9 00           1610 	ld	de,#_Initial_Load + 233
                           1611 ; genAssign (pointer)
   0579 3E 01              1612 	ld	a,#0x01
   057B 12                 1613 	ld	(de),a
                           1614 ; genPlus
                           1615 ; genPlusIncr
   057C 11 EA 00           1616 	ld	de,#_Initial_Load + 234
                           1617 ; genAssign (pointer)
   057F 3E 01              1618 	ld	a,#0x01
   0581 12                 1619 	ld	(de),a
                           1620 ; genPlus
                           1621 ; genPlusIncr
   0582 11 EB 00           1622 	ld	de,#_Initial_Load + 235
                           1623 ; genAssign (pointer)
   0585 3E 01              1624 	ld	a,#0x01
   0587 12                 1625 	ld	(de),a
                           1626 ; genPlus
                           1627 ; genPlusIncr
   0588 11 EC 00           1628 	ld	de,#_Initial_Load + 236
                           1629 ; genAssign (pointer)
   058B 3E 01              1630 	ld	a,#0x01
   058D 12                 1631 	ld	(de),a
                           1632 ; genPlus
                           1633 ; genPlusIncr
   058E 11 ED 00           1634 	ld	de,#_Initial_Load + 237
                           1635 ; genAssign (pointer)
   0591 3E 01              1636 	ld	a,#0x01
   0593 12                 1637 	ld	(de),a
                           1638 ; genPlus
                           1639 ; genPlusIncr
   0594 11 EE 00           1640 	ld	de,#_Initial_Load + 238
                           1641 ; genAssign (pointer)
   0597 3E 01              1642 	ld	a,#0x01
   0599 12                 1643 	ld	(de),a
                           1644 ; genPlus
                           1645 ; genPlusIncr
   059A 11 EF 00           1646 	ld	de,#_Initial_Load + 239
                           1647 ; genAssign (pointer)
   059D 3E 01              1648 	ld	a,#0x01
   059F 12                 1649 	ld	(de),a
                           1650 ; genPlus
                           1651 ; genPlusIncr
   05A0 11 F0 00           1652 	ld	de,#_Initial_Load + 240
                           1653 ; genAssign (pointer)
   05A3 3E 01              1654 	ld	a,#0x01
   05A5 12                 1655 	ld	(de),a
                           1656 ; genPlus
                           1657 ; genPlusIncr
   05A6 11 F1 00           1658 	ld	de,#_Initial_Load + 241
                           1659 ; genAssign (pointer)
   05A9 3E 01              1660 	ld	a,#0x01
   05AB 12                 1661 	ld	(de),a
                           1662 ; genPlus
                           1663 ; genPlusIncr
   05AC 11 F2 00           1664 	ld	de,#_Initial_Load + 242
                           1665 ; genAssign (pointer)
   05AF 3E 01              1666 	ld	a,#0x01
   05B1 12                 1667 	ld	(de),a
                           1668 ; genPlus
                           1669 ; genPlusIncr
   05B2 11 F3 00           1670 	ld	de,#_Initial_Load + 243
                           1671 ; genAssign (pointer)
   05B5 3E 01              1672 	ld	a,#0x01
   05B7 12                 1673 	ld	(de),a
                           1674 ; genPlus
                           1675 ; genPlusIncr
   05B8 11 F4 00           1676 	ld	de,#_Initial_Load + 244
                           1677 ; genAssign (pointer)
   05BB 3E 01              1678 	ld	a,#0x01
   05BD 12                 1679 	ld	(de),a
                           1680 ; genPlus
                           1681 ; genPlusIncr
   05BE 11 F5 00           1682 	ld	de,#_Initial_Load + 245
                           1683 ; genAssign (pointer)
   05C1 3E 01              1684 	ld	a,#0x01
   05C3 12                 1685 	ld	(de),a
                           1686 ; genPlus
                           1687 ; genPlusIncr
   05C4 11 F6 00           1688 	ld	de,#_Initial_Load + 246
                           1689 ; genAssign (pointer)
   05C7 3E 01              1690 	ld	a,#0x01
   05C9 12                 1691 	ld	(de),a
                           1692 ; genPlus
                           1693 ; genPlusIncr
   05CA 11 F7 00           1694 	ld	de,#_Initial_Load + 247
                           1695 ; genAssign (pointer)
   05CD 3E 01              1696 	ld	a,#0x01
   05CF 12                 1697 	ld	(de),a
                           1698 ; genPlus
                           1699 ; genPlusIncr
   05D0 11 F8 00           1700 	ld	de,#_Initial_Load + 248
                           1701 ; genAssign (pointer)
   05D3 3E 01              1702 	ld	a,#0x01
   05D5 12                 1703 	ld	(de),a
                           1704 ; genPlus
                           1705 ; genPlusIncr
   05D6 11 F9 00           1706 	ld	de,#_Initial_Load + 249
                           1707 ; genAssign (pointer)
   05D9 3E 01              1708 	ld	a,#0x01
   05DB 12                 1709 	ld	(de),a
                           1710 ; genPlus
                           1711 ; genPlusIncr
   05DC 11 FA 00           1712 	ld	de,#_Initial_Load + 250
                           1713 ; genAssign (pointer)
   05DF 3E 01              1714 	ld	a,#0x01
   05E1 12                 1715 	ld	(de),a
                           1716 ; genPlus
                           1717 ; genPlusIncr
   05E2 11 FB 00           1718 	ld	de,#_Initial_Load + 251
                           1719 ; genAssign (pointer)
   05E5 3E 01              1720 	ld	a,#0x01
   05E7 12                 1721 	ld	(de),a
                           1722 ; genPlus
                           1723 ; genPlusIncr
   05E8 11 FC 00           1724 	ld	de,#_Initial_Load + 252
                           1725 ; genAssign (pointer)
   05EB 3E 01              1726 	ld	a,#0x01
   05ED 12                 1727 	ld	(de),a
                           1728 ; genPlus
                           1729 ; genPlusIncr
   05EE 11 FD 00           1730 	ld	de,#_Initial_Load + 253
                           1731 ; genAssign (pointer)
   05F1 3E 01              1732 	ld	a,#0x01
   05F3 12                 1733 	ld	(de),a
                           1734 ; genPlus
                           1735 ; genPlusIncr
   05F4 11 FE 00           1736 	ld	de,#_Initial_Load + 254
                           1737 ; genAssign (pointer)
   05F7 3E 01              1738 	ld	a,#0x01
   05F9 12                 1739 	ld	(de),a
                           1740 ; genPlus
                           1741 ; genPlusIncr
   05FA 11 FF 00           1742 	ld	de,#_Initial_Load + 255
                           1743 ; genAssign (pointer)
   05FD 3E 01              1744 	ld	a,#0x01
   05FF 12                 1745 	ld	(de),a
                           1746 ; genPlus
                           1747 ; genPlusIncr
   0600 11 00 01           1748 	ld	de,#_Initial_Load + 256
                           1749 ; genAssign (pointer)
   0603 3E 01              1750 	ld	a,#0x01
   0605 12                 1751 	ld	(de),a
                           1752 ; genPlus
                           1753 ; genPlusIncr
   0606 11 01 01           1754 	ld	de,#_Initial_Load + 257
                           1755 ; genAssign (pointer)
   0609 3E 01              1756 	ld	a,#0x01
   060B 12                 1757 	ld	(de),a
                           1758 ; genPlus
                           1759 ; genPlusIncr
   060C 11 02 01           1760 	ld	de,#_Initial_Load + 258
                           1761 ; genAssign (pointer)
   060F 3E 01              1762 	ld	a,#0x01
   0611 12                 1763 	ld	(de),a
                           1764 ; genPlus
                           1765 ; genPlusIncr
   0612 11 03 01           1766 	ld	de,#_Initial_Load + 259
                           1767 ; genAssign (pointer)
   0615 3E 01              1768 	ld	a,#0x01
   0617 12                 1769 	ld	(de),a
                           1770 ; genPlus
                           1771 ; genPlusIncr
   0618 11 04 01           1772 	ld	de,#_Initial_Load + 260
                           1773 ; genAssign (pointer)
   061B 3E 01              1774 	ld	a,#0x01
   061D 12                 1775 	ld	(de),a
                           1776 ; genPlus
                           1777 ; genPlusIncr
   061E 11 05 01           1778 	ld	de,#_Initial_Load + 261
                           1779 ; genAssign (pointer)
   0621 3E 01              1780 	ld	a,#0x01
   0623 12                 1781 	ld	(de),a
                           1782 ; genPlus
                           1783 ; genPlusIncr
   0624 11 06 01           1784 	ld	de,#_Initial_Load + 262
                           1785 ; genAssign (pointer)
   0627 3E 01              1786 	ld	a,#0x01
   0629 12                 1787 	ld	(de),a
                           1788 ; genPlus
                           1789 ; genPlusIncr
   062A 11 07 01           1790 	ld	de,#_Initial_Load + 263
                           1791 ; genAssign (pointer)
   062D 3E 01              1792 	ld	a,#0x01
   062F 12                 1793 	ld	(de),a
                           1794 ; genPlus
                           1795 ; genPlusIncr
   0630 11 08 01           1796 	ld	de,#_Initial_Load + 264
                           1797 ; genAssign (pointer)
   0633 3E 01              1798 	ld	a,#0x01
   0635 12                 1799 	ld	(de),a
                           1800 ; genPlus
                           1801 ; genPlusIncr
   0636 11 09 01           1802 	ld	de,#_Initial_Load + 265
                           1803 ; genAssign (pointer)
   0639 3E 01              1804 	ld	a,#0x01
   063B 12                 1805 	ld	(de),a
                           1806 ; genPlus
                           1807 ; genPlusIncr
   063C 11 0A 01           1808 	ld	de,#_Initial_Load + 266
                           1809 ; genAssign (pointer)
   063F 3E 01              1810 	ld	a,#0x01
   0641 12                 1811 	ld	(de),a
                           1812 ; genPlus
                           1813 ; genPlusIncr
   0642 11 0B 01           1814 	ld	de,#_Initial_Load + 267
                           1815 ; genAssign (pointer)
   0645 3E 01              1816 	ld	a,#0x01
   0647 12                 1817 	ld	(de),a
                           1818 ; genPlus
                           1819 ; genPlusIncr
   0648 11 0C 01           1820 	ld	de,#_Initial_Load + 268
                           1821 ; genAssign (pointer)
   064B 3E 01              1822 	ld	a,#0x01
   064D 12                 1823 	ld	(de),a
                           1824 ; genPlus
                           1825 ; genPlusIncr
   064E 11 0D 01           1826 	ld	de,#_Initial_Load + 269
                           1827 ; genAssign (pointer)
   0651 3E 01              1828 	ld	a,#0x01
   0653 12                 1829 	ld	(de),a
                           1830 ; genPlus
                           1831 ; genPlusIncr
   0654 11 0E 01           1832 	ld	de,#_Initial_Load + 270
                           1833 ; genAssign (pointer)
   0657 3E 01              1834 	ld	a,#0x01
   0659 12                 1835 	ld	(de),a
                           1836 ; genPlus
                           1837 ; genPlusIncr
   065A 11 0F 01           1838 	ld	de,#_Initial_Load + 271
                           1839 ; genAssign (pointer)
   065D 3E 01              1840 	ld	a,#0x01
   065F 12                 1841 	ld	(de),a
                           1842 ; genPlus
                           1843 ; genPlusIncr
   0660 11 10 01           1844 	ld	de,#_Initial_Load + 272
                           1845 ; genAssign (pointer)
   0663 3E 01              1846 	ld	a,#0x01
   0665 12                 1847 	ld	(de),a
                           1848 ; genPlus
                           1849 ; genPlusIncr
   0666 11 11 01           1850 	ld	de,#_Initial_Load + 273
                           1851 ; genAssign (pointer)
   0669 3E 01              1852 	ld	a,#0x01
   066B 12                 1853 	ld	(de),a
                           1854 ; genPlus
                           1855 ; genPlusIncr
   066C 11 12 01           1856 	ld	de,#_Initial_Load + 274
                           1857 ; genAssign (pointer)
   066F 3E 01              1858 	ld	a,#0x01
   0671 12                 1859 	ld	(de),a
                           1860 ; genPlus
                           1861 ; genPlusIncr
   0672 11 13 01           1862 	ld	de,#_Initial_Load + 275
                           1863 ; genAssign (pointer)
   0675 3E 01              1864 	ld	a,#0x01
   0677 12                 1865 	ld	(de),a
                           1866 ; genPlus
                           1867 ; genPlusIncr
   0678 11 14 01           1868 	ld	de,#_Initial_Load + 276
                           1869 ; genAssign (pointer)
   067B 3E 01              1870 	ld	a,#0x01
   067D 12                 1871 	ld	(de),a
                           1872 ; genPlus
                           1873 ; genPlusIncr
   067E 11 15 01           1874 	ld	de,#_Initial_Load + 277
                           1875 ; genAssign (pointer)
   0681 3E 01              1876 	ld	a,#0x01
   0683 12                 1877 	ld	(de),a
                           1878 ; genPlus
                           1879 ; genPlusIncr
   0684 11 16 01           1880 	ld	de,#_Initial_Load + 278
                           1881 ; genAssign (pointer)
   0687 3E 01              1882 	ld	a,#0x01
   0689 12                 1883 	ld	(de),a
                           1884 ; genPlus
                           1885 ; genPlusIncr
   068A 11 17 01           1886 	ld	de,#_Initial_Load + 279
                           1887 ; genAssign (pointer)
   068D 3E 01              1888 	ld	a,#0x01
   068F 12                 1889 	ld	(de),a
                           1890 ; genPlus
                           1891 ; genPlusIncr
   0690 11 18 01           1892 	ld	de,#_Initial_Load + 280
                           1893 ; genAssign (pointer)
   0693 3E 01              1894 	ld	a,#0x01
   0695 12                 1895 	ld	(de),a
                           1896 ; genPlus
                           1897 ; genPlusIncr
   0696 11 19 01           1898 	ld	de,#_Initial_Load + 281
                           1899 ; genAssign (pointer)
   0699 3E 01              1900 	ld	a,#0x01
   069B 12                 1901 	ld	(de),a
                           1902 ; genPlus
                           1903 ; genPlusIncr
   069C 11 1A 01           1904 	ld	de,#_Initial_Load + 282
                           1905 ; genAssign (pointer)
   069F 3E 01              1906 	ld	a,#0x01
   06A1 12                 1907 	ld	(de),a
                           1908 ; genPlus
                           1909 ; genPlusIncr
   06A2 11 1B 01           1910 	ld	de,#_Initial_Load + 283
                           1911 ; genAssign (pointer)
   06A5 3E 01              1912 	ld	a,#0x01
   06A7 12                 1913 	ld	(de),a
                           1914 ; genPlus
                           1915 ; genPlusIncr
   06A8 11 1C 01           1916 	ld	de,#_Initial_Load + 284
                           1917 ; genAssign (pointer)
   06AB 3E 01              1918 	ld	a,#0x01
   06AD 12                 1919 	ld	(de),a
                           1920 ; genPlus
                           1921 ; genPlusIncr
   06AE 11 1D 01           1922 	ld	de,#_Initial_Load + 285
                           1923 ; genAssign (pointer)
   06B1 3E 01              1924 	ld	a,#0x01
   06B3 12                 1925 	ld	(de),a
                           1926 ; genPlus
                           1927 ; genPlusIncr
   06B4 11 1E 01           1928 	ld	de,#_Initial_Load + 286
                           1929 ; genAssign (pointer)
   06B7 3E 01              1930 	ld	a,#0x01
   06B9 12                 1931 	ld	(de),a
                           1932 ; genPlus
                           1933 ; genPlusIncr
   06BA 11 1F 01           1934 	ld	de,#_Initial_Load + 287
                           1935 ; genAssign (pointer)
   06BD 3E 01              1936 	ld	a,#0x01
   06BF 12                 1937 	ld	(de),a
                           1938 ; genPlus
                           1939 ; genPlusIncr
   06C0 11 20 01           1940 	ld	de,#_Initial_Load + 288
                           1941 ; genAssign (pointer)
   06C3 3E 01              1942 	ld	a,#0x01
   06C5 12                 1943 	ld	(de),a
                           1944 ; genPlus
                           1945 ; genPlusIncr
   06C6 11 21 01           1946 	ld	de,#_Initial_Load + 289
                           1947 ; genAssign (pointer)
   06C9 3E 01              1948 	ld	a,#0x01
   06CB 12                 1949 	ld	(de),a
                           1950 ; genPlus
                           1951 ; genPlusIncr
   06CC 11 22 01           1952 	ld	de,#_Initial_Load + 290
                           1953 ; genAssign (pointer)
   06CF 3E 01              1954 	ld	a,#0x01
   06D1 12                 1955 	ld	(de),a
                           1956 ; genPlus
                           1957 ; genPlusIncr
   06D2 11 23 01           1958 	ld	de,#_Initial_Load + 291
                           1959 ; genAssign (pointer)
   06D5 3E 01              1960 	ld	a,#0x01
   06D7 12                 1961 	ld	(de),a
                           1962 ; genPlus
                           1963 ; genPlusIncr
   06D8 11 24 01           1964 	ld	de,#_Initial_Load + 292
                           1965 ; genAssign (pointer)
   06DB 3E 01              1966 	ld	a,#0x01
   06DD 12                 1967 	ld	(de),a
                           1968 ; genPlus
                           1969 ; genPlusIncr
   06DE 11 25 01           1970 	ld	de,#_Initial_Load + 293
                           1971 ; genAssign (pointer)
   06E1 3E 01              1972 	ld	a,#0x01
   06E3 12                 1973 	ld	(de),a
                           1974 ; genPlus
                           1975 ; genPlusIncr
   06E4 11 26 01           1976 	ld	de,#_Initial_Load + 294
                           1977 ; genAssign (pointer)
   06E7 3E 01              1978 	ld	a,#0x01
   06E9 12                 1979 	ld	(de),a
                           1980 ; genPlus
                           1981 ; genPlusIncr
   06EA 11 27 01           1982 	ld	de,#_Initial_Load + 295
                           1983 ; genAssign (pointer)
   06ED 3E 01              1984 	ld	a,#0x01
   06EF 12                 1985 	ld	(de),a
                           1986 ; genPlus
                           1987 ; genPlusIncr
   06F0 11 28 01           1988 	ld	de,#_Initial_Load + 296
                           1989 ; genAssign (pointer)
   06F3 3E 01              1990 	ld	a,#0x01
   06F5 12                 1991 	ld	(de),a
                           1992 ; genPlus
                           1993 ; genPlusIncr
   06F6 11 29 01           1994 	ld	de,#_Initial_Load + 297
                           1995 ; genAssign (pointer)
   06F9 3E 01              1996 	ld	a,#0x01
   06FB 12                 1997 	ld	(de),a
                           1998 ; genPlus
                           1999 ; genPlusIncr
   06FC 11 2A 01           2000 	ld	de,#_Initial_Load + 298
                           2001 ; genAssign (pointer)
   06FF 3E 01              2002 	ld	a,#0x01
   0701 12                 2003 	ld	(de),a
                           2004 ; genPlus
                           2005 ; genPlusIncr
   0702 11 2B 01           2006 	ld	de,#_Initial_Load + 299
                           2007 ; genAssign (pointer)
   0705 3E 01              2008 	ld	a,#0x01
   0707 12                 2009 	ld	(de),a
                           2010 ; genPlus
                           2011 ; genPlusIncr
   0708 11 2C 01           2012 	ld	de,#_Initial_Load + 300
                           2013 ; genAssign (pointer)
   070B 3E 01              2014 	ld	a,#0x01
   070D 12                 2015 	ld	(de),a
                           2016 ; genPlus
                           2017 ; genPlusIncr
   070E 11 2D 01           2018 	ld	de,#_Initial_Load + 301
                           2019 ; genAssign (pointer)
   0711 3E 01              2020 	ld	a,#0x01
   0713 12                 2021 	ld	(de),a
                           2022 ; genPlus
                           2023 ; genPlusIncr
   0714 11 2E 01           2024 	ld	de,#_Initial_Load + 302
                           2025 ; genAssign (pointer)
   0717 3E 01              2026 	ld	a,#0x01
   0719 12                 2027 	ld	(de),a
                           2028 ; genPlus
                           2029 ; genPlusIncr
   071A 11 2F 01           2030 	ld	de,#_Initial_Load + 303
                           2031 ; genAssign (pointer)
   071D 3E 01              2032 	ld	a,#0x01
   071F 12                 2033 	ld	(de),a
                           2034 ; genPlus
                           2035 ; genPlusIncr
   0720 11 30 01           2036 	ld	de,#_Initial_Load + 304
                           2037 ; genAssign (pointer)
   0723 3E 01              2038 	ld	a,#0x01
   0725 12                 2039 	ld	(de),a
                           2040 ; genPlus
                           2041 ; genPlusIncr
   0726 11 31 01           2042 	ld	de,#_Initial_Load + 305
                           2043 ; genAssign (pointer)
   0729 3E 01              2044 	ld	a,#0x01
   072B 12                 2045 	ld	(de),a
                           2046 ; genPlus
                           2047 ; genPlusIncr
   072C 11 32 01           2048 	ld	de,#_Initial_Load + 306
                           2049 ; genAssign (pointer)
   072F 3E 01              2050 	ld	a,#0x01
   0731 12                 2051 	ld	(de),a
                           2052 ; genPlus
                           2053 ; genPlusIncr
   0732 11 33 01           2054 	ld	de,#_Initial_Load + 307
                           2055 ; genAssign (pointer)
   0735 3E 01              2056 	ld	a,#0x01
   0737 12                 2057 	ld	(de),a
                           2058 ; genPlus
                           2059 ; genPlusIncr
   0738 11 34 01           2060 	ld	de,#_Initial_Load + 308
                           2061 ; genAssign (pointer)
   073B 3E 01              2062 	ld	a,#0x01
   073D 12                 2063 	ld	(de),a
                           2064 ; genPlus
                           2065 ; genPlusIncr
   073E 11 35 01           2066 	ld	de,#_Initial_Load + 309
                           2067 ; genAssign (pointer)
   0741 3E 01              2068 	ld	a,#0x01
   0743 12                 2069 	ld	(de),a
                           2070 ; genPlus
                           2071 ; genPlusIncr
   0744 11 36 01           2072 	ld	de,#_Initial_Load + 310
                           2073 ; genAssign (pointer)
   0747 3E 01              2074 	ld	a,#0x01
   0749 12                 2075 	ld	(de),a
                           2076 ; genPlus
                           2077 ; genPlusIncr
   074A 11 37 01           2078 	ld	de,#_Initial_Load + 311
                           2079 ; genAssign (pointer)
   074D 3E 01              2080 	ld	a,#0x01
   074F 12                 2081 	ld	(de),a
                           2082 ; genPlus
                           2083 ; genPlusIncr
   0750 11 38 01           2084 	ld	de,#_Initial_Load + 312
                           2085 ; genAssign (pointer)
   0753 3E 01              2086 	ld	a,#0x01
   0755 12                 2087 	ld	(de),a
                           2088 ; genPlus
                           2089 ; genPlusIncr
   0756 11 39 01           2090 	ld	de,#_Initial_Load + 313
                           2091 ; genAssign (pointer)
   0759 3E 01              2092 	ld	a,#0x01
   075B 12                 2093 	ld	(de),a
                           2094 ; genPlus
                           2095 ; genPlusIncr
   075C 11 3A 01           2096 	ld	de,#_Initial_Load + 314
                           2097 ; genAssign (pointer)
   075F 3E 01              2098 	ld	a,#0x01
   0761 12                 2099 	ld	(de),a
                           2100 ; genPlus
                           2101 ; genPlusIncr
   0762 11 3B 01           2102 	ld	de,#_Initial_Load + 315
                           2103 ; genAssign (pointer)
   0765 3E 01              2104 	ld	a,#0x01
   0767 12                 2105 	ld	(de),a
                           2106 ; genPlus
                           2107 ; genPlusIncr
   0768 11 3C 01           2108 	ld	de,#_Initial_Load + 316
                           2109 ; genAssign (pointer)
   076B 3E 01              2110 	ld	a,#0x01
   076D 12                 2111 	ld	(de),a
                           2112 ; genPlus
                           2113 ; genPlusIncr
   076E 11 3D 01           2114 	ld	de,#_Initial_Load + 317
                           2115 ; genAssign (pointer)
   0771 3E 01              2116 	ld	a,#0x01
   0773 12                 2117 	ld	(de),a
                           2118 ; genPlus
                           2119 ; genPlusIncr
   0774 11 3E 01           2120 	ld	de,#_Initial_Load + 318
                           2121 ; genAssign (pointer)
   0777 3E 01              2122 	ld	a,#0x01
   0779 12                 2123 	ld	(de),a
                           2124 ; genPlus
                           2125 ; genPlusIncr
   077A 11 3F 01           2126 	ld	de,#_Initial_Load + 319
                           2127 ; genAssign (pointer)
   077D 3E 01              2128 	ld	a,#0x01
   077F 12                 2129 	ld	(de),a
                           2130 ; genPlus
                           2131 ; genPlusIncr
   0780 11 40 01           2132 	ld	de,#_Initial_Load + 320
                           2133 ; genAssign (pointer)
   0783 3E 01              2134 	ld	a,#0x01
   0785 12                 2135 	ld	(de),a
                           2136 ; genPlus
                           2137 ; genPlusIncr
   0786 11 41 01           2138 	ld	de,#_Initial_Load + 321
                           2139 ; genAssign (pointer)
   0789 3E 01              2140 	ld	a,#0x01
   078B 12                 2141 	ld	(de),a
                           2142 ; genPlus
                           2143 ; genPlusIncr
   078C 11 42 01           2144 	ld	de,#_Initial_Load + 322
                           2145 ; genAssign (pointer)
   078F 3E 01              2146 	ld	a,#0x01
   0791 12                 2147 	ld	(de),a
                           2148 ; genPlus
                           2149 ; genPlusIncr
   0792 11 43 01           2150 	ld	de,#_Initial_Load + 323
                           2151 ; genAssign (pointer)
   0795 3E 01              2152 	ld	a,#0x01
   0797 12                 2153 	ld	(de),a
                           2154 ; genPlus
                           2155 ; genPlusIncr
   0798 11 44 01           2156 	ld	de,#_Initial_Load + 324
                           2157 ; genAssign (pointer)
   079B 3E 01              2158 	ld	a,#0x01
   079D 12                 2159 	ld	(de),a
                           2160 ; genPlus
                           2161 ; genPlusIncr
   079E 11 45 01           2162 	ld	de,#_Initial_Load + 325
                           2163 ; genAssign (pointer)
   07A1 3E 01              2164 	ld	a,#0x01
   07A3 12                 2165 	ld	(de),a
                           2166 ; genPlus
                           2167 ; genPlusIncr
   07A4 11 46 01           2168 	ld	de,#_Initial_Load + 326
                           2169 ; genAssign (pointer)
   07A7 3E 01              2170 	ld	a,#0x01
   07A9 12                 2171 	ld	(de),a
                           2172 ; genPlus
                           2173 ; genPlusIncr
   07AA 11 47 01           2174 	ld	de,#_Initial_Load + 327
                           2175 ; genAssign (pointer)
   07AD 3E 01              2176 	ld	a,#0x01
   07AF 12                 2177 	ld	(de),a
                           2178 ; genPlus
                           2179 ; genPlusIncr
   07B0 11 48 01           2180 	ld	de,#_Initial_Load + 328
                           2181 ; genAssign (pointer)
   07B3 3E 01              2182 	ld	a,#0x01
   07B5 12                 2183 	ld	(de),a
                           2184 ; genPlus
                           2185 ; genPlusIncr
   07B6 11 49 01           2186 	ld	de,#_Initial_Load + 329
                           2187 ; genAssign (pointer)
   07B9 3E 01              2188 	ld	a,#0x01
   07BB 12                 2189 	ld	(de),a
                           2190 ; genPlus
                           2191 ; genPlusIncr
   07BC 11 4A 01           2192 	ld	de,#_Initial_Load + 330
                           2193 ; genAssign (pointer)
   07BF 3E 01              2194 	ld	a,#0x01
   07C1 12                 2195 	ld	(de),a
                           2196 ; genPlus
                           2197 ; genPlusIncr
   07C2 11 4B 01           2198 	ld	de,#_Initial_Load + 331
                           2199 ; genAssign (pointer)
   07C5 3E 01              2200 	ld	a,#0x01
   07C7 12                 2201 	ld	(de),a
                           2202 ; genPlus
                           2203 ; genPlusIncr
   07C8 11 4C 01           2204 	ld	de,#_Initial_Load + 332
                           2205 ; genAssign (pointer)
   07CB 3E 01              2206 	ld	a,#0x01
   07CD 12                 2207 	ld	(de),a
                           2208 ; genPlus
                           2209 ; genPlusIncr
   07CE 11 4D 01           2210 	ld	de,#_Initial_Load + 333
                           2211 ; genAssign (pointer)
   07D1 3E 01              2212 	ld	a,#0x01
   07D3 12                 2213 	ld	(de),a
                           2214 ; genPlus
                           2215 ; genPlusIncr
   07D4 11 4E 01           2216 	ld	de,#_Initial_Load + 334
                           2217 ; genAssign (pointer)
   07D7 3E 01              2218 	ld	a,#0x01
   07D9 12                 2219 	ld	(de),a
                           2220 ; genPlus
                           2221 ; genPlusIncr
   07DA 11 4F 01           2222 	ld	de,#_Initial_Load + 335
                           2223 ; genAssign (pointer)
   07DD 3E 01              2224 	ld	a,#0x01
   07DF 12                 2225 	ld	(de),a
                           2226 ; genPlus
                           2227 ; genPlusIncr
   07E0 11 50 01           2228 	ld	de,#_Initial_Load + 336
                           2229 ; genAssign (pointer)
   07E3 3E 01              2230 	ld	a,#0x01
   07E5 12                 2231 	ld	(de),a
                           2232 ; genPlus
                           2233 ; genPlusIncr
   07E6 11 51 01           2234 	ld	de,#_Initial_Load + 337
                           2235 ; genAssign (pointer)
   07E9 3E 01              2236 	ld	a,#0x01
   07EB 12                 2237 	ld	(de),a
                           2238 ; genPlus
                           2239 ; genPlusIncr
   07EC 11 52 01           2240 	ld	de,#_Initial_Load + 338
                           2241 ; genAssign (pointer)
   07EF 3E 01              2242 	ld	a,#0x01
   07F1 12                 2243 	ld	(de),a
                           2244 ; genPlus
                           2245 ; genPlusIncr
   07F2 11 53 01           2246 	ld	de,#_Initial_Load + 339
                           2247 ; genAssign (pointer)
   07F5 3E 01              2248 	ld	a,#0x01
   07F7 12                 2249 	ld	(de),a
                           2250 ; genPlus
                           2251 ; genPlusIncr
   07F8 11 54 01           2252 	ld	de,#_Initial_Load + 340
                           2253 ; genAssign (pointer)
   07FB 3E 01              2254 	ld	a,#0x01
   07FD 12                 2255 	ld	(de),a
                           2256 ; genPlus
                           2257 ; genPlusIncr
   07FE 11 55 01           2258 	ld	de,#_Initial_Load + 341
                           2259 ; genAssign (pointer)
   0801 3E 01              2260 	ld	a,#0x01
   0803 12                 2261 	ld	(de),a
                           2262 ; genPlus
                           2263 ; genPlusIncr
   0804 11 56 01           2264 	ld	de,#_Initial_Load + 342
                           2265 ; genAssign (pointer)
   0807 3E 01              2266 	ld	a,#0x01
   0809 12                 2267 	ld	(de),a
                           2268 ; genPlus
                           2269 ; genPlusIncr
   080A 11 57 01           2270 	ld	de,#_Initial_Load + 343
                           2271 ; genAssign (pointer)
   080D 3E 01              2272 	ld	a,#0x01
   080F 12                 2273 	ld	(de),a
                           2274 ; genPlus
                           2275 ; genPlusIncr
   0810 11 58 01           2276 	ld	de,#_Initial_Load + 344
                           2277 ; genAssign (pointer)
   0813 3E 01              2278 	ld	a,#0x01
   0815 12                 2279 	ld	(de),a
                           2280 ; genPlus
                           2281 ; genPlusIncr
   0816 11 59 01           2282 	ld	de,#_Initial_Load + 345
                           2283 ; genAssign (pointer)
   0819 3E 01              2284 	ld	a,#0x01
   081B 12                 2285 	ld	(de),a
                           2286 ; genPlus
                           2287 ; genPlusIncr
   081C 11 5A 01           2288 	ld	de,#_Initial_Load + 346
                           2289 ; genAssign (pointer)
   081F 3E 01              2290 	ld	a,#0x01
   0821 12                 2291 	ld	(de),a
                           2292 ; genPlus
                           2293 ; genPlusIncr
   0822 11 5B 01           2294 	ld	de,#_Initial_Load + 347
                           2295 ; genAssign (pointer)
   0825 3E 01              2296 	ld	a,#0x01
   0827 12                 2297 	ld	(de),a
                           2298 ; genPlus
                           2299 ; genPlusIncr
   0828 11 5C 01           2300 	ld	de,#_Initial_Load + 348
                           2301 ; genAssign (pointer)
   082B 3E 01              2302 	ld	a,#0x01
   082D 12                 2303 	ld	(de),a
                           2304 ; genPlus
                           2305 ; genPlusIncr
   082E 11 5D 01           2306 	ld	de,#_Initial_Load + 349
                           2307 ; genAssign (pointer)
   0831 3E 01              2308 	ld	a,#0x01
   0833 12                 2309 	ld	(de),a
                           2310 ; genPlus
                           2311 ; genPlusIncr
   0834 11 5E 01           2312 	ld	de,#_Initial_Load + 350
                           2313 ; genAssign (pointer)
   0837 3E 01              2314 	ld	a,#0x01
   0839 12                 2315 	ld	(de),a
                           2316 ; genPlus
                           2317 ; genPlusIncr
   083A 11 5F 01           2318 	ld	de,#_Initial_Load + 351
                           2319 ; genAssign (pointer)
   083D 3E 01              2320 	ld	a,#0x01
   083F 12                 2321 	ld	(de),a
                           2322 ; genPlus
                           2323 ; genPlusIncr
   0840 11 60 01           2324 	ld	de,#_Initial_Load + 352
                           2325 ; genAssign (pointer)
   0843 3E 01              2326 	ld	a,#0x01
   0845 12                 2327 	ld	(de),a
                           2328 ; genPlus
                           2329 ; genPlusIncr
   0846 11 61 01           2330 	ld	de,#_Initial_Load + 353
                           2331 ; genAssign (pointer)
   0849 3E 01              2332 	ld	a,#0x01
   084B 12                 2333 	ld	(de),a
                           2334 ; genPlus
                           2335 ; genPlusIncr
   084C 11 62 01           2336 	ld	de,#_Initial_Load + 354
                           2337 ; genAssign (pointer)
   084F 3E 01              2338 	ld	a,#0x01
   0851 12                 2339 	ld	(de),a
                           2340 ; genPlus
                           2341 ; genPlusIncr
   0852 11 63 01           2342 	ld	de,#_Initial_Load + 355
                           2343 ; genAssign (pointer)
   0855 3E 01              2344 	ld	a,#0x01
   0857 12                 2345 	ld	(de),a
                           2346 ; genPlus
                           2347 ; genPlusIncr
   0858 11 64 01           2348 	ld	de,#_Initial_Load + 356
                           2349 ; genAssign (pointer)
   085B 3E 01              2350 	ld	a,#0x01
   085D 12                 2351 	ld	(de),a
                           2352 ; genPlus
                           2353 ; genPlusIncr
   085E 11 65 01           2354 	ld	de,#_Initial_Load + 357
                           2355 ; genAssign (pointer)
   0861 3E 01              2356 	ld	a,#0x01
   0863 12                 2357 	ld	(de),a
                           2358 ; genPlus
                           2359 ; genPlusIncr
   0864 11 66 01           2360 	ld	de,#_Initial_Load + 358
                           2361 ; genAssign (pointer)
   0867 3E 01              2362 	ld	a,#0x01
   0869 12                 2363 	ld	(de),a
                           2364 ; genPlus
                           2365 ; genPlusIncr
   086A 11 67 01           2366 	ld	de,#_Initial_Load + 359
                           2367 ; genAssign (pointer)
   086D 3E 01              2368 	ld	a,#0x01
   086F 12                 2369 	ld	(de),a
                           2370 ;	main.c 236
                           2371 ; genAssign (pointer)
   0870 11 68 01           2372 	ld	de,#_Tiles + 0
   0873 3E FF              2373 	ld	a,#0xFF
   0875 12                 2374 	ld	(de),a
                           2375 ; genPlus
                           2376 ; genPlusIncr
   0876 11 69 01           2377 	ld	de,#_Tiles + 1
                           2378 ; genAssign (pointer)
   0879 3E DF              2379 	ld	a,#0xDF
   087B 12                 2380 	ld	(de),a
                           2381 ; genPlus
                           2382 ; genPlusIncr
   087C 11 6A 01           2383 	ld	de,#_Tiles + 2
                           2384 ; genAssign (pointer)
   087F 3E DF              2385 	ld	a,#0xDF
   0881 12                 2386 	ld	(de),a
                           2387 ; genPlus
                           2388 ; genPlusIncr
   0882 11 6B 01           2389 	ld	de,#_Tiles + 3
                           2390 ; genAssign (pointer)
   0885 3E 8D              2391 	ld	a,#0x8D
   0887 12                 2392 	ld	(de),a
                           2393 ; genPlus
                           2394 ; genPlusIncr
   0888 11 6C 01           2395 	ld	de,#_Tiles + 4
                           2396 ; genAssign (pointer)
   088B 3E FD              2397 	ld	a,#0xFD
   088D 12                 2398 	ld	(de),a
                           2399 ; genPlus
                           2400 ; genPlusIncr
   088E 11 6D 01           2401 	ld	de,#_Tiles + 5
                           2402 ; genAssign (pointer)
   0891 3E D8              2403 	ld	a,#0xD8
   0893 12                 2404 	ld	(de),a
                           2405 ; genPlus
                           2406 ; genPlusIncr
   0894 11 6E 01           2407 	ld	de,#_Tiles + 6
                           2408 ; genAssign (pointer)
   0897 3E FF              2409 	ld	a,#0xFF
   0899 12                 2410 	ld	(de),a
                           2411 ; genPlus
                           2412 ; genPlusIncr
   089A 11 6F 01           2413 	ld	de,#_Tiles + 7
                           2414 ; genAssign (pointer)
   089D 3E F5              2415 	ld	a,#0xF5
   089F 12                 2416 	ld	(de),a
                           2417 ; genPlus
                           2418 ; genPlusIncr
   08A0 11 70 01           2419 	ld	de,#_Tiles + 8
                           2420 ; genAssign (pointer)
   08A3 3E F7              2421 	ld	a,#0xF7
   08A5 12                 2422 	ld	(de),a
                           2423 ; genPlus
                           2424 ; genPlusIncr
   08A6 11 71 01           2425 	ld	de,#_Tiles + 9
                           2426 ; genAssign (pointer)
   08A9 3E A3              2427 	ld	a,#0xA3
   08AB 12                 2428 	ld	(de),a
                           2429 ; genPlus
                           2430 ; genPlusIncr
   08AC 11 72 01           2431 	ld	de,#_Tiles + 10
                           2432 ; genAssign (pointer)
   08AF 3E BF              2433 	ld	a,#0xBF
   08B1 12                 2434 	ld	(de),a
                           2435 ; genPlus
                           2436 ; genPlusIncr
   08B2 11 73 01           2437 	ld	de,#_Tiles + 11
                           2438 ; genAssign (pointer)
   08B5 3E 1F              2439 	ld	a,#0x1F
   08B7 12                 2440 	ld	(de),a
                           2441 ; genPlus
                           2442 ; genPlusIncr
   08B8 11 74 01           2443 	ld	de,#_Tiles + 12
                           2444 ; genAssign (pointer)
   08BB 3E FB              2445 	ld	a,#0xFB
   08BD 12                 2446 	ld	(de),a
                           2447 ; genPlus
                           2448 ; genPlusIncr
   08BE 11 75 01           2449 	ld	de,#_Tiles + 13
                           2450 ; genAssign (pointer)
   08C1 3E B1              2451 	ld	a,#0xB1
   08C3 12                 2452 	ld	(de),a
                           2453 ; genPlus
                           2454 ; genPlusIncr
   08C4 11 76 01           2455 	ld	de,#_Tiles + 14
                           2456 ; genAssign (pointer)
   08C7 3E FF              2457 	ld	a,#0xFF
   08C9 12                 2458 	ld	(de),a
                           2459 ; genPlus
                           2460 ; genPlusIncr
   08CA 11 77 01           2461 	ld	de,#_Tiles + 15
                           2462 ; genAssign (pointer)
   08CD 3E FB              2463 	ld	a,#0xFB
   08CF 12                 2464 	ld	(de),a
                           2465 ; genPlus
                           2466 ; genPlusIncr
   08D0 11 78 01           2467 	ld	de,#_Tiles + 16
                           2468 ; genAssign (pointer)
   08D3 3E FF              2469 	ld	a,#0xFF
   08D5 12                 2470 	ld	(de),a
                           2471 ; genPlus
                           2472 ; genPlusIncr
   08D6 11 79 01           2473 	ld	de,#_Tiles + 17
                           2474 ; genAssign (pointer)
   08D9 3E FF              2475 	ld	a,#0xFF
   08DB 12                 2476 	ld	(de),a
                           2477 ; genPlus
                           2478 ; genPlusIncr
   08DC 11 7A 01           2479 	ld	de,#_Tiles + 18
                           2480 ; genAssign (pointer)
   08DF 3E FF              2481 	ld	a,#0xFF
   08E1 12                 2482 	ld	(de),a
                           2483 ; genPlus
                           2484 ; genPlusIncr
   08E2 11 7B 01           2485 	ld	de,#_Tiles + 19
                           2486 ; genAssign (pointer)
   08E5 3E FF              2487 	ld	a,#0xFF
   08E7 12                 2488 	ld	(de),a
                           2489 ; genPlus
                           2490 ; genPlusIncr
   08E8 11 7C 01           2491 	ld	de,#_Tiles + 20
                           2492 ; genAssign (pointer)
   08EB 3E FF              2493 	ld	a,#0xFF
   08ED 12                 2494 	ld	(de),a
                           2495 ; genPlus
                           2496 ; genPlusIncr
   08EE 11 7D 01           2497 	ld	de,#_Tiles + 21
                           2498 ; genAssign (pointer)
   08F1 3E FF              2499 	ld	a,#0xFF
   08F3 12                 2500 	ld	(de),a
                           2501 ; genPlus
                           2502 ; genPlusIncr
   08F4 11 7E 01           2503 	ld	de,#_Tiles + 22
                           2504 ; genAssign (pointer)
   08F7 3E FF              2505 	ld	a,#0xFF
   08F9 12                 2506 	ld	(de),a
                           2507 ; genPlus
                           2508 ; genPlusIncr
   08FA 11 7F 01           2509 	ld	de,#_Tiles + 23
                           2510 ; genAssign (pointer)
   08FD 3E FF              2511 	ld	a,#0xFF
   08FF 12                 2512 	ld	(de),a
                           2513 ; genPlus
                           2514 ; genPlusIncr
   0900 11 80 01           2515 	ld	de,#_Tiles + 24
                           2516 ; genAssign (pointer)
   0903 3E FF              2517 	ld	a,#0xFF
   0905 12                 2518 	ld	(de),a
                           2519 ; genPlus
                           2520 ; genPlusIncr
   0906 11 81 01           2521 	ld	de,#_Tiles + 25
                           2522 ; genAssign (pointer)
   0909 3E FF              2523 	ld	a,#0xFF
   090B 12                 2524 	ld	(de),a
                           2525 ; genPlus
                           2526 ; genPlusIncr
   090C 11 82 01           2527 	ld	de,#_Tiles + 26
                           2528 ; genAssign (pointer)
   090F 3E FF              2529 	ld	a,#0xFF
   0911 12                 2530 	ld	(de),a
                           2531 ; genPlus
                           2532 ; genPlusIncr
   0912 11 83 01           2533 	ld	de,#_Tiles + 27
                           2534 ; genAssign (pointer)
   0915 3E FF              2535 	ld	a,#0xFF
   0917 12                 2536 	ld	(de),a
                           2537 ; genPlus
                           2538 ; genPlusIncr
   0918 11 84 01           2539 	ld	de,#_Tiles + 28
                           2540 ; genAssign (pointer)
   091B 3E FF              2541 	ld	a,#0xFF
   091D 12                 2542 	ld	(de),a
                           2543 ; genPlus
                           2544 ; genPlusIncr
   091E 11 85 01           2545 	ld	de,#_Tiles + 29
                           2546 ; genAssign (pointer)
   0921 3E FF              2547 	ld	a,#0xFF
   0923 12                 2548 	ld	(de),a
                           2549 ; genPlus
                           2550 ; genPlusIncr
   0924 11 86 01           2551 	ld	de,#_Tiles + 30
                           2552 ; genAssign (pointer)
   0927 3E FF              2553 	ld	a,#0xFF
   0929 12                 2554 	ld	(de),a
                           2555 ; genPlus
                           2556 ; genPlusIncr
   092A 11 87 01           2557 	ld	de,#_Tiles + 31
                           2558 ; genAssign (pointer)
   092D 3E FF              2559 	ld	a,#0xFF
   092F 12                 2560 	ld	(de),a
                           2561 ; genPlus
                           2562 ; genPlusIncr
   0930 11 88 01           2563 	ld	de,#_Tiles + 32
                           2564 ; genAssign (pointer)
   0933 3E E3              2565 	ld	a,#0xE3
   0935 12                 2566 	ld	(de),a
                           2567 ; genPlus
                           2568 ; genPlusIncr
   0936 11 89 01           2569 	ld	de,#_Tiles + 33
                           2570 ; genAssign (pointer)
   0939 3E C3              2571 	ld	a,#0xC3
   093B 12                 2572 	ld	(de),a
                           2573 ; genPlus
                           2574 ; genPlusIncr
   093C 11 8A 01           2575 	ld	de,#_Tiles + 34
                           2576 ; genAssign (pointer)
   093F 3E D5              2577 	ld	a,#0xD5
   0941 12                 2578 	ld	(de),a
                           2579 ; genPlus
                           2580 ; genPlusIncr
   0942 11 8B 01           2581 	ld	de,#_Tiles + 35
                           2582 ; genAssign (pointer)
   0945 3E A1              2583 	ld	a,#0xA1
   0947 12                 2584 	ld	(de),a
                           2585 ; genPlus
                           2586 ; genPlusIncr
   0948 11 8C 01           2587 	ld	de,#_Tiles + 36
                           2588 ; genAssign (pointer)
   094B 3E 2A              2589 	ld	a,#0x2A
   094D 12                 2590 	ld	(de),a
                           2591 ; genPlus
                           2592 ; genPlusIncr
   094E 11 8D 01           2593 	ld	de,#_Tiles + 37
                           2594 ; genAssign (pointer)
   0951 3E 04              2595 	ld	a,#0x04
   0953 12                 2596 	ld	(de),a
                           2597 ; genPlus
                           2598 ; genPlusIncr
   0954 11 8E 01           2599 	ld	de,#_Tiles + 38
                           2600 ; genAssign (pointer)
   0957 3E 24              2601 	ld	a,#0x24
   0959 12                 2602 	ld	(de),a
                           2603 ; genPlus
                           2604 ; genPlusIncr
   095A 11 8F 01           2605 	ld	de,#_Tiles + 39
                           2606 ; genAssign (pointer)
   095D 3E 00              2607 	ld	a,#0x00
   095F 12                 2608 	ld	(de),a
                           2609 ; genPlus
                           2610 ; genPlusIncr
   0960 11 90 01           2611 	ld	de,#_Tiles + 40
                           2612 ; genAssign (pointer)
   0963 3E 5A              2613 	ld	a,#0x5A
   0965 12                 2614 	ld	(de),a
                           2615 ; genPlus
                           2616 ; genPlusIncr
   0966 11 91 01           2617 	ld	de,#_Tiles + 41
                           2618 ; genAssign (pointer)
   0969 3E 24              2619 	ld	a,#0x24
   096B 12                 2620 	ld	(de),a
                           2621 ; genPlus
                           2622 ; genPlusIncr
   096C 11 92 01           2623 	ld	de,#_Tiles + 42
                           2624 ; genAssign (pointer)
   096F 3E 54              2625 	ld	a,#0x54
   0971 12                 2626 	ld	(de),a
                           2627 ; genPlus
                           2628 ; genPlusIncr
   0972 11 93 01           2629 	ld	de,#_Tiles + 43
                           2630 ; genAssign (pointer)
   0975 3E 28              2631 	ld	a,#0x28
   0977 12                 2632 	ld	(de),a
                           2633 ; genPlus
                           2634 ; genPlusIncr
   0978 11 94 01           2635 	ld	de,#_Tiles + 44
                           2636 ; genAssign (pointer)
   097B 3E AB              2637 	ld	a,#0xAB
   097D 12                 2638 	ld	(de),a
                           2639 ; genPlus
                           2640 ; genPlusIncr
   097E 11 95 01           2641 	ld	de,#_Tiles + 45
                           2642 ; genAssign (pointer)
   0981 3E 85              2643 	ld	a,#0x85
   0983 12                 2644 	ld	(de),a
                           2645 ; genPlus
                           2646 ; genPlusIncr
   0984 11 96 01           2647 	ld	de,#_Tiles + 46
                           2648 ; genAssign (pointer)
   0987 3E C7              2649 	ld	a,#0xC7
   0989 12                 2650 	ld	(de),a
                           2651 ; genPlus
                           2652 ; genPlusIncr
   098A 11 97 01           2653 	ld	de,#_Tiles + 47
                           2654 ; genAssign (pointer)
   098D 3E C3              2655 	ld	a,#0xC3
   098F 12                 2656 	ld	(de),a
                           2657 ;	main.c 236
                           2658 ; genAssign (pointer)
   0990 11 98 01           2659 	ld	de,#_Sprites + 0
   0993 3E FF              2660 	ld	a,#0xFF
   0995 12                 2661 	ld	(de),a
                           2662 ; genPlus
                           2663 ; genPlusIncr
   0996 11 99 01           2664 	ld	de,#_Sprites + 1
                           2665 ; genAssign (pointer)
   0999 3E FF              2666 	ld	a,#0xFF
   099B 12                 2667 	ld	(de),a
                           2668 ; genPlus
                           2669 ; genPlusIncr
   099C 11 9A 01           2670 	ld	de,#_Sprites + 2
                           2671 ; genAssign (pointer)
   099F 3E FF              2672 	ld	a,#0xFF
   09A1 12                 2673 	ld	(de),a
                           2674 ; genPlus
                           2675 ; genPlusIncr
   09A2 11 9B 01           2676 	ld	de,#_Sprites + 3
                           2677 ; genAssign (pointer)
   09A5 3E FF              2678 	ld	a,#0xFF
   09A7 12                 2679 	ld	(de),a
                           2680 ; genPlus
                           2681 ; genPlusIncr
   09A8 11 9C 01           2682 	ld	de,#_Sprites + 4
                           2683 ; genAssign (pointer)
   09AB 3E FF              2684 	ld	a,#0xFF
   09AD 12                 2685 	ld	(de),a
                           2686 ; genPlus
                           2687 ; genPlusIncr
   09AE 11 9D 01           2688 	ld	de,#_Sprites + 5
                           2689 ; genAssign (pointer)
   09B1 3E FF              2690 	ld	a,#0xFF
   09B3 12                 2691 	ld	(de),a
                           2692 ; genPlus
                           2693 ; genPlusIncr
   09B4 11 9E 01           2694 	ld	de,#_Sprites + 6
                           2695 ; genAssign (pointer)
   09B7 3E FF              2696 	ld	a,#0xFF
   09B9 12                 2697 	ld	(de),a
                           2698 ; genPlus
                           2699 ; genPlusIncr
   09BA 11 9F 01           2700 	ld	de,#_Sprites + 7
                           2701 ; genAssign (pointer)
   09BD 3E FF              2702 	ld	a,#0xFF
   09BF 12                 2703 	ld	(de),a
                           2704 ; genPlus
                           2705 ; genPlusIncr
   09C0 11 A0 01           2706 	ld	de,#_Sprites + 8
                           2707 ; genAssign (pointer)
   09C3 3E FF              2708 	ld	a,#0xFF
   09C5 12                 2709 	ld	(de),a
                           2710 ; genPlus
                           2711 ; genPlusIncr
   09C6 11 A1 01           2712 	ld	de,#_Sprites + 9
                           2713 ; genAssign (pointer)
   09C9 3E FE              2714 	ld	a,#0xFE
   09CB 12                 2715 	ld	(de),a
                           2716 ; genPlus
                           2717 ; genPlusIncr
   09CC 11 A2 01           2718 	ld	de,#_Sprites + 10
                           2719 ; genAssign (pointer)
   09CF 3E FF              2720 	ld	a,#0xFF
   09D1 12                 2721 	ld	(de),a
                           2722 ; genPlus
                           2723 ; genPlusIncr
   09D2 11 A3 01           2724 	ld	de,#_Sprites + 11
                           2725 ; genAssign (pointer)
   09D5 3E FC              2726 	ld	a,#0xFC
   09D7 12                 2727 	ld	(de),a
                           2728 ; genPlus
                           2729 ; genPlusIncr
   09D8 11 A4 01           2730 	ld	de,#_Sprites + 12
                           2731 ; genAssign (pointer)
   09DB 3E FE              2732 	ld	a,#0xFE
   09DD 12                 2733 	ld	(de),a
                           2734 ; genPlus
                           2735 ; genPlusIncr
   09DE 11 A5 01           2736 	ld	de,#_Sprites + 13
                           2737 ; genAssign (pointer)
   09E1 3E F9              2738 	ld	a,#0xF9
   09E3 12                 2739 	ld	(de),a
                           2740 ; genPlus
                           2741 ; genPlusIncr
   09E4 11 A6 01           2742 	ld	de,#_Sprites + 14
                           2743 ; genAssign (pointer)
   09E7 3E FD              2744 	ld	a,#0xFD
   09E9 12                 2745 	ld	(de),a
                           2746 ; genPlus
                           2747 ; genPlusIncr
   09EA 11 A7 01           2748 	ld	de,#_Sprites + 15
                           2749 ; genAssign (pointer)
   09ED 3E F3              2750 	ld	a,#0xF3
   09EF 12                 2751 	ld	(de),a
                           2752 ; genPlus
                           2753 ; genPlusIncr
   09F0 11 A8 01           2754 	ld	de,#_Sprites + 16
                           2755 ; genAssign (pointer)
   09F3 3E FD              2756 	ld	a,#0xFD
   09F5 12                 2757 	ld	(de),a
                           2758 ; genPlus
                           2759 ; genPlusIncr
   09F6 11 A9 01           2760 	ld	de,#_Sprites + 17
                           2761 ; genAssign (pointer)
   09F9 3E 03              2762 	ld	a,#0x03
   09FB 12                 2763 	ld	(de),a
                           2764 ; genPlus
                           2765 ; genPlusIncr
   09FC 11 AA 01           2766 	ld	de,#_Sprites + 18
                           2767 ; genAssign (pointer)
   09FF 3E F9              2768 	ld	a,#0xF9
   0A01 12                 2769 	ld	(de),a
                           2770 ; genPlus
                           2771 ; genPlusIncr
   0A02 11 AB 01           2772 	ld	de,#_Sprites + 19
                           2773 ; genAssign (pointer)
   0A05 3E E7              2774 	ld	a,#0xE7
   0A07 12                 2775 	ld	(de),a
                           2776 ; genPlus
                           2777 ; genPlusIncr
   0A08 11 AC 01           2778 	ld	de,#_Sprites + 20
                           2779 ; genAssign (pointer)
   0A0B 3E F3              2780 	ld	a,#0xF3
   0A0D 12                 2781 	ld	(de),a
                           2782 ; genPlus
                           2783 ; genPlusIncr
   0A0E 11 AD 01           2784 	ld	de,#_Sprites + 21
                           2785 ; genAssign (pointer)
   0A11 3E CF              2786 	ld	a,#0xCF
   0A13 12                 2787 	ld	(de),a
                           2788 ; genPlus
                           2789 ; genPlusIncr
   0A14 11 AE 01           2790 	ld	de,#_Sprites + 22
                           2791 ; genAssign (pointer)
   0A17 3E E7              2792 	ld	a,#0xE7
   0A19 12                 2793 	ld	(de),a
                           2794 ; genPlus
                           2795 ; genPlusIncr
   0A1A 11 AF 01           2796 	ld	de,#_Sprites + 23
                           2797 ; genAssign (pointer)
   0A1D 3E 9F              2798 	ld	a,#0x9F
   0A1F 12                 2799 	ld	(de),a
                           2800 ; genPlus
                           2801 ; genPlusIncr
   0A20 11 B0 01           2802 	ld	de,#_Sprites + 24
                           2803 ; genAssign (pointer)
   0A23 3E E7              2804 	ld	a,#0xE7
   0A25 12                 2805 	ld	(de),a
                           2806 ; genPlus
                           2807 ; genPlusIncr
   0A26 11 B1 01           2808 	ld	de,#_Sprites + 25
                           2809 ; genAssign (pointer)
   0A29 3E 9F              2810 	ld	a,#0x9F
   0A2B 12                 2811 	ld	(de),a
                           2812 ; genPlus
                           2813 ; genPlusIncr
   0A2C 11 B2 01           2814 	ld	de,#_Sprites + 26
                           2815 ; genAssign (pointer)
   0A2F 3E F3              2816 	ld	a,#0xF3
   0A31 12                 2817 	ld	(de),a
                           2818 ; genPlus
                           2819 ; genPlusIncr
   0A32 11 B3 01           2820 	ld	de,#_Sprites + 27
                           2821 ; genAssign (pointer)
   0A35 3E CF              2822 	ld	a,#0xCF
   0A37 12                 2823 	ld	(de),a
                           2824 ; genPlus
                           2825 ; genPlusIncr
   0A38 11 B4 01           2826 	ld	de,#_Sprites + 28
                           2827 ; genAssign (pointer)
   0A3B 3E F9              2828 	ld	a,#0xF9
   0A3D 12                 2829 	ld	(de),a
                           2830 ; genPlus
                           2831 ; genPlusIncr
   0A3E 11 B5 01           2832 	ld	de,#_Sprites + 29
                           2833 ; genAssign (pointer)
   0A41 3E E7              2834 	ld	a,#0xE7
   0A43 12                 2835 	ld	(de),a
                           2836 ; genPlus
                           2837 ; genPlusIncr
   0A44 11 B6 01           2838 	ld	de,#_Sprites + 30
                           2839 ; genAssign (pointer)
   0A47 3E FD              2840 	ld	a,#0xFD
   0A49 12                 2841 	ld	(de),a
                           2842 ; genPlus
                           2843 ; genPlusIncr
   0A4A 11 B7 01           2844 	ld	de,#_Sprites + 31
                           2845 ; genAssign (pointer)
   0A4D 3E 03              2846 	ld	a,#0x03
   0A4F 12                 2847 	ld	(de),a
                           2848 ; genPlus
                           2849 ; genPlusIncr
   0A50 11 B8 01           2850 	ld	de,#_Sprites + 32
                           2851 ; genAssign (pointer)
   0A53 3E FD              2852 	ld	a,#0xFD
   0A55 12                 2853 	ld	(de),a
                           2854 ; genPlus
                           2855 ; genPlusIncr
   0A56 11 B9 01           2856 	ld	de,#_Sprites + 33
                           2857 ; genAssign (pointer)
   0A59 3E F3              2858 	ld	a,#0xF3
   0A5B 12                 2859 	ld	(de),a
                           2860 ; genPlus
                           2861 ; genPlusIncr
   0A5C 11 BA 01           2862 	ld	de,#_Sprites + 34
                           2863 ; genAssign (pointer)
   0A5F 3E FE              2864 	ld	a,#0xFE
   0A61 12                 2865 	ld	(de),a
                           2866 ; genPlus
                           2867 ; genPlusIncr
   0A62 11 BB 01           2868 	ld	de,#_Sprites + 35
                           2869 ; genAssign (pointer)
   0A65 3E F9              2870 	ld	a,#0xF9
   0A67 12                 2871 	ld	(de),a
                           2872 ; genPlus
                           2873 ; genPlusIncr
   0A68 11 BC 01           2874 	ld	de,#_Sprites + 36
                           2875 ; genAssign (pointer)
   0A6B 3E FF              2876 	ld	a,#0xFF
   0A6D 12                 2877 	ld	(de),a
                           2878 ; genPlus
                           2879 ; genPlusIncr
   0A6E 11 BD 01           2880 	ld	de,#_Sprites + 37
                           2881 ; genAssign (pointer)
   0A71 3E FC              2882 	ld	a,#0xFC
   0A73 12                 2883 	ld	(de),a
                           2884 ; genPlus
                           2885 ; genPlusIncr
   0A74 11 BE 01           2886 	ld	de,#_Sprites + 38
                           2887 ; genAssign (pointer)
   0A77 3E FF              2888 	ld	a,#0xFF
   0A79 12                 2889 	ld	(de),a
                           2890 ; genPlus
                           2891 ; genPlusIncr
   0A7A 11 BF 01           2892 	ld	de,#_Sprites + 39
                           2893 ; genAssign (pointer)
   0A7D 3E FE              2894 	ld	a,#0xFE
   0A7F 12                 2895 	ld	(de),a
                           2896 ; genPlus
                           2897 ; genPlusIncr
   0A80 11 C0 01           2898 	ld	de,#_Sprites + 40
                           2899 ; genAssign (pointer)
   0A83 3E FF              2900 	ld	a,#0xFF
   0A85 12                 2901 	ld	(de),a
                           2902 ; genPlus
                           2903 ; genPlusIncr
   0A86 11 C1 01           2904 	ld	de,#_Sprites + 41
                           2905 ; genAssign (pointer)
   0A89 3E FF              2906 	ld	a,#0xFF
   0A8B 12                 2907 	ld	(de),a
                           2908 ; genPlus
                           2909 ; genPlusIncr
   0A8C 11 C2 01           2910 	ld	de,#_Sprites + 42
                           2911 ; genAssign (pointer)
   0A8F 3E FF              2912 	ld	a,#0xFF
   0A91 12                 2913 	ld	(de),a
                           2914 ; genPlus
                           2915 ; genPlusIncr
   0A92 11 C3 01           2916 	ld	de,#_Sprites + 43
                           2917 ; genAssign (pointer)
   0A95 3E FF              2918 	ld	a,#0xFF
   0A97 12                 2919 	ld	(de),a
                           2920 ; genPlus
                           2921 ; genPlusIncr
   0A98 11 C4 01           2922 	ld	de,#_Sprites + 44
                           2923 ; genAssign (pointer)
   0A9B 3E FF              2924 	ld	a,#0xFF
   0A9D 12                 2925 	ld	(de),a
                           2926 ; genPlus
                           2927 ; genPlusIncr
   0A9E 11 C5 01           2928 	ld	de,#_Sprites + 45
                           2929 ; genAssign (pointer)
   0AA1 3E FF              2930 	ld	a,#0xFF
   0AA3 12                 2931 	ld	(de),a
                           2932 ; genPlus
                           2933 ; genPlusIncr
   0AA4 11 C6 01           2934 	ld	de,#_Sprites + 46
                           2935 ; genAssign (pointer)
   0AA7 3E FF              2936 	ld	a,#0xFF
   0AA9 12                 2937 	ld	(de),a
                           2938 ; genPlus
                           2939 ; genPlusIncr
   0AAA 11 C7 01           2940 	ld	de,#_Sprites + 47
                           2941 ; genAssign (pointer)
   0AAD 3E FF              2942 	ld	a,#0xFF
   0AAF 12                 2943 	ld	(de),a
                           2944 ; genPlus
                           2945 ; genPlusIncr
   0AB0 11 C8 01           2946 	ld	de,#_Sprites + 48
                           2947 ; genAssign (pointer)
   0AB3 3E FF              2948 	ld	a,#0xFF
   0AB5 12                 2949 	ld	(de),a
                           2950 ; genPlus
                           2951 ; genPlusIncr
   0AB6 11 C9 01           2952 	ld	de,#_Sprites + 49
                           2953 ; genAssign (pointer)
   0AB9 3E C3              2954 	ld	a,#0xC3
   0ABB 12                 2955 	ld	(de),a
                           2956 ; genPlus
                           2957 ; genPlusIncr
   0ABC 11 CA 01           2958 	ld	de,#_Sprites + 50
                           2959 ; genAssign (pointer)
   0ABF 3E FF              2960 	ld	a,#0xFF
   0AC1 12                 2961 	ld	(de),a
                           2962 ; genPlus
                           2963 ; genPlusIncr
   0AC2 11 CB 01           2964 	ld	de,#_Sprites + 51
                           2965 ; genAssign (pointer)
   0AC5 3E FF              2966 	ld	a,#0xFF
   0AC7 12                 2967 	ld	(de),a
                           2968 ; genPlus
                           2969 ; genPlusIncr
   0AC8 11 CC 01           2970 	ld	de,#_Sprites + 52
                           2971 ; genAssign (pointer)
   0ACB 3E FF              2972 	ld	a,#0xFF
   0ACD 12                 2973 	ld	(de),a
                           2974 ; genPlus
                           2975 ; genPlusIncr
   0ACE 11 CD 01           2976 	ld	de,#_Sprites + 53
                           2977 ; genAssign (pointer)
   0AD1 3E FF              2978 	ld	a,#0xFF
   0AD3 12                 2979 	ld	(de),a
                           2980 ; genPlus
                           2981 ; genPlusIncr
   0AD4 11 CE 01           2982 	ld	de,#_Sprites + 54
                           2983 ; genAssign (pointer)
   0AD7 3E FF              2984 	ld	a,#0xFF
   0AD9 12                 2985 	ld	(de),a
                           2986 ; genPlus
                           2987 ; genPlusIncr
   0ADA 11 CF 01           2988 	ld	de,#_Sprites + 55
                           2989 ; genAssign (pointer)
   0ADD 3E FF              2990 	ld	a,#0xFF
   0ADF 12                 2991 	ld	(de),a
                           2992 ; genPlus
                           2993 ; genPlusIncr
   0AE0 11 D0 01           2994 	ld	de,#_Sprites + 56
                           2995 ; genAssign (pointer)
   0AE3 3E FF              2996 	ld	a,#0xFF
   0AE5 12                 2997 	ld	(de),a
                           2998 ; genPlus
                           2999 ; genPlusIncr
   0AE6 11 D1 01           3000 	ld	de,#_Sprites + 57
                           3001 ; genAssign (pointer)
   0AE9 3E FF              3002 	ld	a,#0xFF
   0AEB 12                 3003 	ld	(de),a
                           3004 ; genPlus
                           3005 ; genPlusIncr
   0AEC 11 D2 01           3006 	ld	de,#_Sprites + 58
                           3007 ; genAssign (pointer)
   0AEF 3E FF              3008 	ld	a,#0xFF
   0AF1 12                 3009 	ld	(de),a
                           3010 ; genPlus
                           3011 ; genPlusIncr
   0AF2 11 D3 01           3012 	ld	de,#_Sprites + 59
                           3013 ; genAssign (pointer)
   0AF5 3E FF              3014 	ld	a,#0xFF
   0AF7 12                 3015 	ld	(de),a
                           3016 ; genPlus
                           3017 ; genPlusIncr
   0AF8 11 D4 01           3018 	ld	de,#_Sprites + 60
                           3019 ; genAssign (pointer)
   0AFB 3E FF              3020 	ld	a,#0xFF
   0AFD 12                 3021 	ld	(de),a
                           3022 ; genPlus
                           3023 ; genPlusIncr
   0AFE 11 D5 01           3024 	ld	de,#_Sprites + 61
                           3025 ; genAssign (pointer)
   0B01 3E FF              3026 	ld	a,#0xFF
   0B03 12                 3027 	ld	(de),a
                           3028 ; genPlus
                           3029 ; genPlusIncr
   0B04 11 D6 01           3030 	ld	de,#_Sprites + 62
                           3031 ; genAssign (pointer)
   0B07 3E FF              3032 	ld	a,#0xFF
   0B09 12                 3033 	ld	(de),a
                           3034 ; genPlus
                           3035 ; genPlusIncr
   0B0A 11 D7 01           3036 	ld	de,#_Sprites + 63
                           3037 ; genAssign (pointer)
   0B0D 3E C3              3038 	ld	a,#0xC3
   0B0F 12                 3039 	ld	(de),a
                           3040 ; genPlus
                           3041 ; genPlusIncr
   0B10 11 D8 01           3042 	ld	de,#_Sprites + 64
                           3043 ; genAssign (pointer)
   0B13 3E BF              3044 	ld	a,#0xBF
   0B15 12                 3045 	ld	(de),a
                           3046 ; genPlus
                           3047 ; genPlusIncr
   0B16 11 D9 01           3048 	ld	de,#_Sprites + 65
                           3049 ; genAssign (pointer)
   0B19 3E FF              3050 	ld	a,#0xFF
   0B1B 12                 3051 	ld	(de),a
                           3052 ; genPlus
                           3053 ; genPlusIncr
   0B1C 11 DA 01           3054 	ld	de,#_Sprites + 66
                           3055 ; genAssign (pointer)
   0B1F 3E DA              3056 	ld	a,#0xDA
   0B21 12                 3057 	ld	(de),a
                           3058 ; genPlus
                           3059 ; genPlusIncr
   0B22 11 DB 01           3060 	ld	de,#_Sprites + 67
                           3061 ; genAssign (pointer)
   0B25 3E BD              3062 	ld	a,#0xBD
   0B27 12                 3063 	ld	(de),a
                           3064 ; genPlus
                           3065 ; genPlusIncr
   0B28 11 DC 01           3066 	ld	de,#_Sprites + 68
                           3067 ; genAssign (pointer)
   0B2B 3E BD              3068 	ld	a,#0xBD
   0B2D 12                 3069 	ld	(de),a
                           3070 ; genPlus
                           3071 ; genPlusIncr
   0B2E 11 DD 01           3072 	ld	de,#_Sprites + 69
                           3073 ; genAssign (pointer)
   0B31 3E FF              3074 	ld	a,#0xFF
   0B33 12                 3075 	ld	(de),a
                           3076 ; genPlus
                           3077 ; genPlusIncr
   0B34 11 DE 01           3078 	ld	de,#_Sprites + 70
                           3079 ; genAssign (pointer)
   0B37 3E F7              3080 	ld	a,#0xF7
   0B39 12                 3081 	ld	(de),a
                           3082 ; genPlus
                           3083 ; genPlusIncr
   0B3A 11 DF 01           3084 	ld	de,#_Sprites + 71
                           3085 ; genAssign (pointer)
   0B3D 3E FF              3086 	ld	a,#0xFF
   0B3F 12                 3087 	ld	(de),a
                           3088 ; genPlus
                           3089 ; genPlusIncr
   0B40 11 E0 01           3090 	ld	de,#_Sprites + 72
                           3091 ; genAssign (pointer)
   0B43 3E AF              3092 	ld	a,#0xAF
   0B45 12                 3093 	ld	(de),a
                           3094 ; genPlus
                           3095 ; genPlusIncr
   0B46 11 E1 01           3096 	ld	de,#_Sprites + 73
                           3097 ; genAssign (pointer)
   0B49 3E 77              3098 	ld	a,#0x77
   0B4B 12                 3099 	ld	(de),a
                           3100 ; genPlus
                           3101 ; genPlusIncr
   0B4C 11 E2 01           3102 	ld	de,#_Sprites + 74
                           3103 ; genAssign (pointer)
   0B4F 3E 75              3104 	ld	a,#0x75
   0B51 12                 3105 	ld	(de),a
                           3106 ; genPlus
                           3107 ; genPlusIncr
   0B52 11 E3 01           3108 	ld	de,#_Sprites + 75
                           3109 ; genAssign (pointer)
   0B55 3E FF              3110 	ld	a,#0xFF
   0B57 12                 3111 	ld	(de),a
                           3112 ; genPlus
                           3113 ; genPlusIncr
   0B58 11 E4 01           3114 	ld	de,#_Sprites + 76
                           3115 ; genAssign (pointer)
   0B5B 3E DE              3116 	ld	a,#0xDE
   0B5D 12                 3117 	ld	(de),a
                           3118 ; genPlus
                           3119 ; genPlusIncr
   0B5E 11 E5 01           3120 	ld	de,#_Sprites + 77
                           3121 ; genAssign (pointer)
   0B61 3E FD              3122 	ld	a,#0xFD
   0B63 12                 3123 	ld	(de),a
                           3124 ; genPlus
                           3125 ; genPlusIncr
   0B64 11 E6 01           3126 	ld	de,#_Sprites + 78
                           3127 ; genAssign (pointer)
   0B67 3E AD              3128 	ld	a,#0xAD
   0B69 12                 3129 	ld	(de),a
                           3130 ; genPlus
                           3131 ; genPlusIncr
   0B6A 11 E7 01           3132 	ld	de,#_Sprites + 79
                           3133 ; genAssign (pointer)
   0B6D 3E DF              3134 	ld	a,#0xDF
   0B6F 12                 3135 	ld	(de),a
                           3136 ; genPlus
                           3137 ; genPlusIncr
   0B70 11 E8 01           3138 	ld	de,#_Sprites + 80
                           3139 ; genAssign (pointer)
   0B73 3E FF              3140 	ld	a,#0xFF
   0B75 12                 3141 	ld	(de),a
                           3142 ; genPlus
                           3143 ; genPlusIncr
   0B76 11 E9 01           3144 	ld	de,#_Sprites + 81
                           3145 ; genAssign (pointer)
   0B79 3E FF              3146 	ld	a,#0xFF
   0B7B 12                 3147 	ld	(de),a
                           3148 ; genPlus
                           3149 ; genPlusIncr
   0B7C 11 EA 01           3150 	ld	de,#_Sprites + 82
                           3151 ; genAssign (pointer)
   0B7F 3E FF              3152 	ld	a,#0xFF
   0B81 12                 3153 	ld	(de),a
                           3154 ; genPlus
                           3155 ; genPlusIncr
   0B82 11 EB 01           3156 	ld	de,#_Sprites + 83
                           3157 ; genAssign (pointer)
   0B85 3E FF              3158 	ld	a,#0xFF
   0B87 12                 3159 	ld	(de),a
                           3160 ; genPlus
                           3161 ; genPlusIncr
   0B88 11 EC 01           3162 	ld	de,#_Sprites + 84
                           3163 ; genAssign (pointer)
   0B8B 3E FF              3164 	ld	a,#0xFF
   0B8D 12                 3165 	ld	(de),a
                           3166 ; genPlus
                           3167 ; genPlusIncr
   0B8E 11 ED 01           3168 	ld	de,#_Sprites + 85
                           3169 ; genAssign (pointer)
   0B91 3E FF              3170 	ld	a,#0xFF
   0B93 12                 3171 	ld	(de),a
                           3172 ; genPlus
                           3173 ; genPlusIncr
   0B94 11 EE 01           3174 	ld	de,#_Sprites + 86
                           3175 ; genAssign (pointer)
   0B97 3E FF              3176 	ld	a,#0xFF
   0B99 12                 3177 	ld	(de),a
                           3178 ; genPlus
                           3179 ; genPlusIncr
   0B9A 11 EF 01           3180 	ld	de,#_Sprites + 87
                           3181 ; genAssign (pointer)
   0B9D 3E FF              3182 	ld	a,#0xFF
   0B9F 12                 3183 	ld	(de),a
                           3184 ; genPlus
                           3185 ; genPlusIncr
   0BA0 11 F0 01           3186 	ld	de,#_Sprites + 88
                           3187 ; genAssign (pointer)
   0BA3 3E FF              3188 	ld	a,#0xFF
   0BA5 12                 3189 	ld	(de),a
                           3190 ; genPlus
                           3191 ; genPlusIncr
   0BA6 11 F1 01           3192 	ld	de,#_Sprites + 89
                           3193 ; genAssign (pointer)
   0BA9 3E FF              3194 	ld	a,#0xFF
   0BAB 12                 3195 	ld	(de),a
                           3196 ; genPlus
                           3197 ; genPlusIncr
   0BAC 11 F2 01           3198 	ld	de,#_Sprites + 90
                           3199 ; genAssign (pointer)
   0BAF 3E FF              3200 	ld	a,#0xFF
   0BB1 12                 3201 	ld	(de),a
                           3202 ; genPlus
                           3203 ; genPlusIncr
   0BB2 11 F3 01           3204 	ld	de,#_Sprites + 91
                           3205 ; genAssign (pointer)
   0BB5 3E FF              3206 	ld	a,#0xFF
   0BB7 12                 3207 	ld	(de),a
                           3208 ; genPlus
                           3209 ; genPlusIncr
   0BB8 11 F4 01           3210 	ld	de,#_Sprites + 92
                           3211 ; genAssign (pointer)
   0BBB 3E FF              3212 	ld	a,#0xFF
   0BBD 12                 3213 	ld	(de),a
                           3214 ; genPlus
                           3215 ; genPlusIncr
   0BBE 11 F5 01           3216 	ld	de,#_Sprites + 93
                           3217 ; genAssign (pointer)
   0BC1 3E FF              3218 	ld	a,#0xFF
   0BC3 12                 3219 	ld	(de),a
                           3220 ; genPlus
                           3221 ; genPlusIncr
   0BC4 11 F6 01           3222 	ld	de,#_Sprites + 94
                           3223 ; genAssign (pointer)
   0BC7 3E FF              3224 	ld	a,#0xFF
   0BC9 12                 3225 	ld	(de),a
                           3226 ; genPlus
                           3227 ; genPlusIncr
   0BCA 11 F7 01           3228 	ld	de,#_Sprites + 95
                           3229 ; genAssign (pointer)
   0BCD 3E FF              3230 	ld	a,#0xFF
   0BCF 12                 3231 	ld	(de),a
                           3232 ; genPlus
                           3233 ; genPlusIncr
   0BD0 11 F8 01           3234 	ld	de,#_Sprites + 96
                           3235 ; genAssign (pointer)
   0BD3 3E F7              3236 	ld	a,#0xF7
   0BD5 12                 3237 	ld	(de),a
                           3238 ; genPlus
                           3239 ; genPlusIncr
   0BD6 11 F9 01           3240 	ld	de,#_Sprites + 97
                           3241 ; genAssign (pointer)
   0BD9 3E CB              3242 	ld	a,#0xCB
   0BDB 12                 3243 	ld	(de),a
                           3244 ; genPlus
                           3245 ; genPlusIncr
   0BDC 11 FA 01           3246 	ld	de,#_Sprites + 98
                           3247 ; genAssign (pointer)
   0BDF 3E DB              3248 	ld	a,#0xDB
   0BE1 12                 3249 	ld	(de),a
                           3250 ; genPlus
                           3251 ; genPlusIncr
   0BE2 11 FB 01           3252 	ld	de,#_Sprites + 99
                           3253 ; genAssign (pointer)
   0BE5 3E A5              3254 	ld	a,#0xA5
   0BE7 12                 3255 	ld	(de),a
                           3256 ; genPlus
                           3257 ; genPlusIncr
   0BE8 11 FC 01           3258 	ld	de,#_Sprites + 100
                           3259 ; genAssign (pointer)
   0BEB 3E AF              3260 	ld	a,#0xAF
   0BED 12                 3261 	ld	(de),a
                           3262 ; genPlus
                           3263 ; genPlusIncr
   0BEE 11 FD 01           3264 	ld	de,#_Sprites + 101
                           3265 ; genAssign (pointer)
   0BF1 3E 50              3266 	ld	a,#0x50
   0BF3 12                 3267 	ld	(de),a
                           3268 ; genPlus
                           3269 ; genPlusIncr
   0BF4 11 FE 01           3270 	ld	de,#_Sprites + 102
                           3271 ; genAssign (pointer)
   0BF7 3E DA              3272 	ld	a,#0xDA
   0BF9 12                 3273 	ld	(de),a
                           3274 ; genPlus
                           3275 ; genPlusIncr
   0BFA 11 FF 01           3276 	ld	de,#_Sprites + 103
                           3277 ; genAssign (pointer)
   0BFD 3E 25              3278 	ld	a,#0x25
   0BFF 12                 3279 	ld	(de),a
                           3280 ; genPlus
                           3281 ; genPlusIncr
   0C00 11 00 02           3282 	ld	de,#_Sprites + 104
                           3283 ; genAssign (pointer)
   0C03 3E AD              3284 	ld	a,#0xAD
   0C05 12                 3285 	ld	(de),a
                           3286 ; genPlus
                           3287 ; genPlusIncr
   0C06 11 01 02           3288 	ld	de,#_Sprites + 105
                           3289 ; genAssign (pointer)
   0C09 3E 52              3290 	ld	a,#0x52
   0C0B 12                 3291 	ld	(de),a
                           3292 ; genPlus
                           3293 ; genPlusIncr
   0C0C 11 02 02           3294 	ld	de,#_Sprites + 106
                           3295 ; genAssign (pointer)
   0C0F 3E F6              3296 	ld	a,#0xF6
   0C11 12                 3297 	ld	(de),a
                           3298 ; genPlus
                           3299 ; genPlusIncr
   0C12 11 03 02           3300 	ld	de,#_Sprites + 107
                           3301 ; genAssign (pointer)
   0C15 3E 09              3302 	ld	a,#0x09
   0C17 12                 3303 	ld	(de),a
                           3304 ; genPlus
                           3305 ; genPlusIncr
   0C18 11 04 02           3306 	ld	de,#_Sprites + 108
                           3307 ; genAssign (pointer)
   0C1B 3E BB              3308 	ld	a,#0xBB
   0C1D 12                 3309 	ld	(de),a
                           3310 ; genPlus
                           3311 ; genPlusIncr
   0C1E 11 05 02           3312 	ld	de,#_Sprites + 109
                           3313 ; genAssign (pointer)
   0C21 3E C5              3314 	ld	a,#0xC5
   0C23 12                 3315 	ld	(de),a
                           3316 ; genPlus
                           3317 ; genPlusIncr
   0C24 11 06 02           3318 	ld	de,#_Sprites + 110
                           3319 ; genAssign (pointer)
   0C27 3E D7              3320 	ld	a,#0xD7
   0C29 12                 3321 	ld	(de),a
                           3322 ; genPlus
                           3323 ; genPlusIncr
   0C2A 11 07 02           3324 	ld	de,#_Sprites + 111
                           3325 ; genAssign (pointer)
   0C2D 3E EB              3326 	ld	a,#0xEB
   0C2F 12                 3327 	ld	(de),a
                           3328 ; genPlus
                           3329 ; genPlusIncr
   0C30 11 08 02           3330 	ld	de,#_Sprites + 112
                           3331 ; genAssign (pointer)
   0C33 3E FF              3332 	ld	a,#0xFF
   0C35 12                 3333 	ld	(de),a
                           3334 ; genPlus
                           3335 ; genPlusIncr
   0C36 11 09 02           3336 	ld	de,#_Sprites + 113
                           3337 ; genAssign (pointer)
   0C39 3E FF              3338 	ld	a,#0xFF
   0C3B 12                 3339 	ld	(de),a
                           3340 ; genPlus
                           3341 ; genPlusIncr
   0C3C 11 0A 02           3342 	ld	de,#_Sprites + 114
                           3343 ; genAssign (pointer)
   0C3F 3E FF              3344 	ld	a,#0xFF
   0C41 12                 3345 	ld	(de),a
                           3346 ; genPlus
                           3347 ; genPlusIncr
   0C42 11 0B 02           3348 	ld	de,#_Sprites + 115
                           3349 ; genAssign (pointer)
   0C45 3E FF              3350 	ld	a,#0xFF
   0C47 12                 3351 	ld	(de),a
                           3352 ; genPlus
                           3353 ; genPlusIncr
   0C48 11 0C 02           3354 	ld	de,#_Sprites + 116
                           3355 ; genAssign (pointer)
   0C4B 3E FF              3356 	ld	a,#0xFF
   0C4D 12                 3357 	ld	(de),a
                           3358 ; genPlus
                           3359 ; genPlusIncr
   0C4E 11 0D 02           3360 	ld	de,#_Sprites + 117
                           3361 ; genAssign (pointer)
   0C51 3E FF              3362 	ld	a,#0xFF
   0C53 12                 3363 	ld	(de),a
                           3364 ; genPlus
                           3365 ; genPlusIncr
   0C54 11 0E 02           3366 	ld	de,#_Sprites + 118
                           3367 ; genAssign (pointer)
   0C57 3E FF              3368 	ld	a,#0xFF
   0C59 12                 3369 	ld	(de),a
                           3370 ; genPlus
                           3371 ; genPlusIncr
   0C5A 11 0F 02           3372 	ld	de,#_Sprites + 119
                           3373 ; genAssign (pointer)
   0C5D 3E FF              3374 	ld	a,#0xFF
   0C5F 12                 3375 	ld	(de),a
                           3376 ; genPlus
                           3377 ; genPlusIncr
   0C60 11 10 02           3378 	ld	de,#_Sprites + 120
                           3379 ; genAssign (pointer)
   0C63 3E FB              3380 	ld	a,#0xFB
   0C65 12                 3381 	ld	(de),a
                           3382 ; genPlus
                           3383 ; genPlusIncr
   0C66 11 11 02           3384 	ld	de,#_Sprites + 121
                           3385 ; genAssign (pointer)
   0C69 3E FF              3386 	ld	a,#0xFF
   0C6B 12                 3387 	ld	(de),a
                           3388 ; genPlus
                           3389 ; genPlusIncr
   0C6C 11 12 02           3390 	ld	de,#_Sprites + 122
                           3391 ; genAssign (pointer)
   0C6F 3E D5              3392 	ld	a,#0xD5
   0C71 12                 3393 	ld	(de),a
                           3394 ; genPlus
                           3395 ; genPlusIncr
   0C72 11 13 02           3396 	ld	de,#_Sprites + 123
                           3397 ; genAssign (pointer)
   0C75 3E FB              3398 	ld	a,#0xFB
   0C77 12                 3399 	ld	(de),a
                           3400 ; genPlus
                           3401 ; genPlusIncr
   0C78 11 14 02           3402 	ld	de,#_Sprites + 124
                           3403 ; genAssign (pointer)
   0C7B 3E BE              3404 	ld	a,#0xBE
   0C7D 12                 3405 	ld	(de),a
                           3406 ; genPlus
                           3407 ; genPlusIncr
   0C7E 11 15 02           3408 	ld	de,#_Sprites + 125
                           3409 ; genAssign (pointer)
   0C81 3E DD              3410 	ld	a,#0xDD
   0C83 12                 3411 	ld	(de),a
                           3412 ; genPlus
                           3413 ; genPlusIncr
   0C84 11 16 02           3414 	ld	de,#_Sprites + 126
                           3415 ; genAssign (pointer)
   0C87 3E FF              3416 	ld	a,#0xFF
   0C89 12                 3417 	ld	(de),a
                           3418 ; genPlus
                           3419 ; genPlusIncr
   0C8A 11 17 02           3420 	ld	de,#_Sprites + 127
                           3421 ; genAssign (pointer)
   0C8D 3E D6              3422 	ld	a,#0xD6
   0C8F 12                 3423 	ld	(de),a
                           3424 ; genPlus
                           3425 ; genPlusIncr
   0C90 11 18 02           3426 	ld	de,#_Sprites + 128
                           3427 ; genAssign (pointer)
   0C93 3E FF              3428 	ld	a,#0xFF
   0C95 12                 3429 	ld	(de),a
                           3430 ; genPlus
                           3431 ; genPlusIncr
   0C96 11 19 02           3432 	ld	de,#_Sprites + 129
                           3433 ; genAssign (pointer)
   0C99 3E D6              3434 	ld	a,#0xD6
   0C9B 12                 3435 	ld	(de),a
                           3436 ; genPlus
                           3437 ; genPlusIncr
   0C9C 11 1A 02           3438 	ld	de,#_Sprites + 130
                           3439 ; genAssign (pointer)
   0C9F 3E BE              3440 	ld	a,#0xBE
   0CA1 12                 3441 	ld	(de),a
                           3442 ; genPlus
                           3443 ; genPlusIncr
   0CA2 11 1B 02           3444 	ld	de,#_Sprites + 131
                           3445 ; genAssign (pointer)
   0CA5 3E DD              3446 	ld	a,#0xDD
   0CA7 12                 3447 	ld	(de),a
                           3448 ; genPlus
                           3449 ; genPlusIncr
   0CA8 11 1C 02           3450 	ld	de,#_Sprites + 132
                           3451 ; genAssign (pointer)
   0CAB 3E D5              3452 	ld	a,#0xD5
   0CAD 12                 3453 	ld	(de),a
                           3454 ; genPlus
                           3455 ; genPlusIncr
   0CAE 11 1D 02           3456 	ld	de,#_Sprites + 133
                           3457 ; genAssign (pointer)
   0CB1 3E FB              3458 	ld	a,#0xFB
   0CB3 12                 3459 	ld	(de),a
                           3460 ; genPlus
                           3461 ; genPlusIncr
   0CB4 11 1E 02           3462 	ld	de,#_Sprites + 134
                           3463 ; genAssign (pointer)
   0CB7 3E FB              3464 	ld	a,#0xFB
   0CB9 12                 3465 	ld	(de),a
                           3466 ; genPlus
                           3467 ; genPlusIncr
   0CBA 11 1F 02           3468 	ld	de,#_Sprites + 135
                           3469 ; genAssign (pointer)
   0CBD 3E FF              3470 	ld	a,#0xFF
   0CBF 12                 3471 	ld	(de),a
                           3472 ; genPlus
                           3473 ; genPlusIncr
   0CC0 11 20 02           3474 	ld	de,#_Sprites + 136
                           3475 ; genAssign (pointer)
   0CC3 3E FF              3476 	ld	a,#0xFF
   0CC5 12                 3477 	ld	(de),a
                           3478 ; genPlus
                           3479 ; genPlusIncr
   0CC6 11 21 02           3480 	ld	de,#_Sprites + 137
                           3481 ; genAssign (pointer)
   0CC9 3E FF              3482 	ld	a,#0xFF
   0CCB 12                 3483 	ld	(de),a
                           3484 ; genPlus
                           3485 ; genPlusIncr
   0CCC 11 22 02           3486 	ld	de,#_Sprites + 138
                           3487 ; genAssign (pointer)
   0CCF 3E FF              3488 	ld	a,#0xFF
   0CD1 12                 3489 	ld	(de),a
                           3490 ; genPlus
                           3491 ; genPlusIncr
   0CD2 11 23 02           3492 	ld	de,#_Sprites + 139
                           3493 ; genAssign (pointer)
   0CD5 3E FF              3494 	ld	a,#0xFF
   0CD7 12                 3495 	ld	(de),a
                           3496 ; genPlus
                           3497 ; genPlusIncr
   0CD8 11 24 02           3498 	ld	de,#_Sprites + 140
                           3499 ; genAssign (pointer)
   0CDB 3E FF              3500 	ld	a,#0xFF
   0CDD 12                 3501 	ld	(de),a
                           3502 ; genPlus
                           3503 ; genPlusIncr
   0CDE 11 25 02           3504 	ld	de,#_Sprites + 141
                           3505 ; genAssign (pointer)
   0CE1 3E FF              3506 	ld	a,#0xFF
   0CE3 12                 3507 	ld	(de),a
                           3508 ; genPlus
                           3509 ; genPlusIncr
   0CE4 11 26 02           3510 	ld	de,#_Sprites + 142
                           3511 ; genAssign (pointer)
   0CE7 3E FF              3512 	ld	a,#0xFF
   0CE9 12                 3513 	ld	(de),a
                           3514 ; genPlus
                           3515 ; genPlusIncr
   0CEA 11 27 02           3516 	ld	de,#_Sprites + 143
                           3517 ; genAssign (pointer)
   0CED 3E FF              3518 	ld	a,#0xFF
   0CEF 12                 3519 	ld	(de),a
                           3520 ;	main.c 236
                           3521 ; genAssign
                           3522 ; AOP_HL for _Asteroid_Sprites
   0CF0 21 30 02           3523 	ld	hl,#_Asteroid_Sprites + 0
   0CF3 36 00              3524 	ld	(hl),#0x00
                           3525 ;	main.c 236
                           3526 ; genAssign
                           3527 ; AOP_HL for _i
   0CF5 21 31 02           3528 	ld	hl,#_i + 0
   0CF8 36 00              3529 	ld	(hl),#0x00
                           3530 ;	main.c 236
                           3531 ; genAssign
                           3532 ; AOP_HL for _j
   0CFA 21 32 02           3533 	ld	hl,#_j + 0
   0CFD 36 00              3534 	ld	(hl),#0x00
                           3535 ;	main.c 236
                           3536 ; genAssign
                           3537 ; AOP_HL for _score
   0CFF 21 33 02           3538 	ld	hl,#_score + 0
   0D02 36 00              3539 	ld	(hl),#0x00
                           3540 ;	main.c 236
                           3541 ; genAssign
                           3542 ; AOP_HL for _upDown
   0D04 21 34 02           3543 	ld	hl,#_upDown + 0
   0D07 36 00              3544 	ld	(hl),#0x00
                           3545 ;	main.c 236
                           3546 ; genAssign
                           3547 ; AOP_HL for _tick
   0D09 21 35 02           3548 	ld	hl,#_tick + 0
   0D0C 36 00              3549 	ld	(hl),#0x00
                           3550 ;--------------------------------------------------------
                           3551 ; code
                           3552 ;--------------------------------------------------------
                           3553 	.area _CODE
                           3554 ;	main.c 59
                           3555 ; genLabel
                           3556 ; genFunction
                           3557 ;	---------------------------------
                           3558 ; Function main
                           3559 ; ---------------------------------
   0000                    3560 ___main_start:
   0000                    3561 _main:
   0000 C5                 3562 	push	bc
                           3563 ;	main.c 60
                           3564 ; genCall
   0001 CD 1B 00           3565 	call	_init
                           3566 ;	main.c 61
                           3567 ; genLabel
   0004                    3568 00102$:
                           3569 ;	main.c 62
                           3570 ; genCall
   0004 CD 5B 01           3571 	call	_checkInput
                           3572 ;	main.c 63
                           3573 ; genCall
   0007 CD 46 01           3574 	call	_updateSwitches
                           3575 ;	main.c 64
                           3576 ; genCall
   000A CD 00 00           3577 	call	_wait_vbl_done
                           3578 ;	main.c 66
                           3579 ; genCall
   000D CD 24 03           3580 	call	_moveAstroids
                           3581 ;	main.c 67
                           3582 ; genCall
   0010 CD 95 02           3583 	call	_moveLaser
                           3584 ;	main.c 68
                           3585 ; genCall
   0013 CD C1 03           3586 	call	_checkCollisions
                           3587 ; genGoto
   0016 C3 04 00           3588 	jp	00102$
                           3589 ; genLabel
   0019                    3590 00104$:
                           3591 ; genEndFunction
   0019 C1                 3592 	pop	bc
   001A C9                 3593 	ret
   001B                    3594 ___main_end:
                           3595 ;	main.c 75
                           3596 ; genLabel
                           3597 ; genFunction
                           3598 ;	---------------------------------
                           3599 ; Function init
                           3600 ; ---------------------------------
   001B                    3601 ___init_start:
   001B                    3602 _init:
   001B C5                 3603 	push	bc
   001C E8 FD              3604 	lda sp,-3(sp)
                           3605 ;	main.c 76
                           3606 ; genOr
                           3607 ; AOP_SFR for _LCDC_REG
                           3608 ; Type res[4] = l[4]&r[1]
                           3609 ; Size res[1] = l[1]&r[1]
   001E F0 00              3610 	ldh	a,(_LCDC_REG+0) ; x
   0020 F6 80              3611 	or	a,#0x80
   0022 E0 00              3612 	ldh	(_LCDC_REG+0),a
                           3613 ;	main.c 81
                           3614 ; genIpush
   0024 21 68 01           3615 	ld	hl,#_Tiles + 0
   0027 E5                 3616 	push	hl
                           3617 ; genIpush
   0028 3E 03              3618 	ld	a,#0x03
   002A F5                 3619 	push	af
   002B 33                 3620 	inc	sp
                           3621 ; genIpush
   002C 3E 00              3622 	ld	a,#0x00
   002E F5                 3623 	push	af
   002F 33                 3624 	inc	sp
                           3625 ; genCall
   0030 CD 00 00           3626 	call	_set_bkg_data
   0033 E8 04              3627 	lda	sp,4(sp)
                           3628 ;	main.c 82
                           3629 ; genIpush
   0035 21 00 00           3630 	ld	hl,#_Initial_Load + 0
   0038 E5                 3631 	push	hl
                           3632 ; genIpush
   0039 3E 12              3633 	ld	a,#0x12
   003B F5                 3634 	push	af
   003C 33                 3635 	inc	sp
                           3636 ; genIpush
   003D 3E 14              3637 	ld	a,#0x14
   003F F5                 3638 	push	af
   0040 33                 3639 	inc	sp
                           3640 ; genIpush
   0041 3E 00              3641 	ld	a,#0x00
   0043 F5                 3642 	push	af
   0044 33                 3643 	inc	sp
                           3644 ; genIpush
   0045 3E 00              3645 	ld	a,#0x00
   0047 F5                 3646 	push	af
   0048 33                 3647 	inc	sp
                           3648 ; genCall
   0049 CD 00 00           3649 	call	_set_bkg_tiles
   004C E8 06              3650 	lda	sp,6(sp)
                           3651 ;	main.c 83
                           3652 ; genIpush
   004E 21 98 01           3653 	ld	hl,#_Sprites + 0
   0051 E5                 3654 	push	hl
                           3655 ; genIpush
   0052 3E 0A              3656 	ld	a,#0x0A
   0054 F5                 3657 	push	af
   0055 33                 3658 	inc	sp
                           3659 ; genIpush
   0056 3E 00              3660 	ld	a,#0x00
   0058 F5                 3661 	push	af
   0059 33                 3662 	inc	sp
                           3663 ; genCall
   005A CD 00 00           3664 	call	_set_sprite_data
   005D E8 04              3665 	lda	sp,4(sp)
                           3666 ;	main.c 84
                           3667 ; genIpush
   005F 3E 00              3668 	ld	a,#0x00
   0061 F5                 3669 	push	af
   0062 33                 3670 	inc	sp
                           3671 ; genIpush
   0063 3E 00              3672 	ld	a,#0x00
   0065 F5                 3673 	push	af
   0066 33                 3674 	inc	sp
                           3675 ; genCall
   0067 CD 00 00           3676 	call	_set_sprite_tile
   006A E8 02              3677 	lda	sp,2(sp)
                           3678 ;	main.c 85
                           3679 ; genIpush
   006C 3E 01              3680 	ld	a,#0x01
   006E F5                 3681 	push	af
   006F 33                 3682 	inc	sp
                           3683 ; genIpush
   0070 3E 01              3684 	ld	a,#0x01
   0072 F5                 3685 	push	af
   0073 33                 3686 	inc	sp
                           3687 ; genCall
   0074 CD 00 00           3688 	call	_set_sprite_tile
   0077 E8 02              3689 	lda	sp,2(sp)
                           3690 ;	main.c 86
                           3691 ; genIpush
   0079 3E 02              3692 	ld	a,#0x02
   007B F5                 3693 	push	af
   007C 33                 3694 	inc	sp
                           3695 ; genIpush
   007D 3E 02              3696 	ld	a,#0x02
   007F F5                 3697 	push	af
   0080 33                 3698 	inc	sp
                           3699 ; genCall
   0081 CD 00 00           3700 	call	_set_sprite_tile
   0084 E8 02              3701 	lda	sp,2(sp)
                           3702 ;	main.c 87
                           3703 ; genIpush
   0086 3E 03              3704 	ld	a,#0x03
   0088 F5                 3705 	push	af
   0089 33                 3706 	inc	sp
                           3707 ; genIpush
   008A 3E 03              3708 	ld	a,#0x03
   008C F5                 3709 	push	af
   008D 33                 3710 	inc	sp
                           3711 ; genCall
   008E CD 00 00           3712 	call	_set_sprite_tile
   0091 E8 02              3713 	lda	sp,2(sp)
                           3714 ;	main.c 89
                           3715 ; genAssign (pointer)
   0093 11 28 02           3716 	ld	de,#_player + 0
   0096 3E A0              3717 	ld	a,#0xA0
   0098 12                 3718 	ld	(de),a
                           3719 ;	main.c 90
                           3720 ; genPlus
                           3721 ; genPlusIncr
   0099 11 29 02           3722 	ld	de,#_player + 1
                           3723 ; genAssign (pointer)
   009C 3E 50              3724 	ld	a,#0x50
   009E 12                 3725 	ld	(de),a
                           3726 ;	main.c 91
                           3727 ; genPlus
                           3728 ; genPlusIncr
   009F 11 2D 02           3729 	ld	de,#_laser + 2
                           3730 ; genAssign (pointer)
   00A2 3E 00              3731 	ld	a,#0x00
   00A4 12                 3732 	ld	(de),a
                           3733 ;	main.c 92
                           3734 ; genPlus
                           3735 ; genPlusIncr
   00A5 11 2A 02           3736 	ld	de,#_player + 2
                           3737 ; genAssign (pointer)
   00A8 3E 01              3738 	ld	a,#0x01
   00AA 12                 3739 	ld	(de),a
                           3740 ;	main.c 93
                           3741 ; genPlus
                           3742 ; genPlusIncr
   00AB 11 2F 02           3743 	ld	de,#_explosion + 1
                           3744 ; genAssign (pointer)
   00AE 3E 00              3745 	ld	a,#0x00
   00B0 12                 3746 	ld	(de),a
                           3747 ;	main.c 94
                           3748 ; genAssign (pointer)
   00B1 11 2E 02           3749 	ld	de,#_explosion + 0
   00B4 3E 00              3750 	ld	a,#0x00
   00B6 12                 3751 	ld	(de),a
                           3752 ;	main.c 96
                           3753 ; genAssign
                           3754 ; AOP_HL for _i
   00B7 21 31 02           3755 	ld	hl,#_i + 0
   00BA 36 04              3756 	ld	(hl),#0x04
                           3757 ;	main.c 97
                           3758 ; genLabel
   00BC                    3759 00101$:
                           3760 ; genCmpLt
                           3761 ; AOP_HL for _i
   00BC 21 31 02           3762 	ld	hl,#_i + 0
   00BF 7E                 3763 	ld	a,(hl)
   00C0 FE 14              3764 	cp	#0x14
   00C2 D2 42 01           3765 	jp	nc,00104$
                           3766 ;	main.c 98
                           3767 ; genIpush
   00C5 3E 06              3768 	ld	a,#0x06
   00C7 F5                 3769 	push	af
   00C8 33                 3770 	inc	sp
                           3771 ; genIpush
                           3772 ; AOP_HL for _i
   00C9 7E                 3773 	ld	a,(hl)
   00CA F5                 3774 	push	af
   00CB 33                 3775 	inc	sp
                           3776 ; genCall
   00CC CD 00 00           3777 	call	_set_sprite_tile
   00CF E8 02              3778 	lda	sp,2(sp)
                           3779 ;	main.c 101
                           3780 ; genMinus
                           3781 ; AOP_HL for _i
   00D1 21 31 02           3782 	ld	hl,#_i + 0
   00D4 7E                 3783 	ld	a,(hl)
   00D5 C6 FC              3784 	add	a,#0xFC
   00D7 4F                 3785 	ld	c,a
                           3786 ; genLeftShift
   00D8 79                 3787 	ld	a,c
   00D9 87                 3788 	add	a,a
   00DA 4F                 3789 	ld	c,a
                           3790 ; genPlus
                           3791 ; AOP_STK for _init_sloc0_1_0
   00DB 3E 36              3792 	ld	a,#<_Asteroids
   00DD 81                 3793 	add	a,c
   00DE F8 01              3794 	lda	hl,1(sp)
   00E0 77                 3795 	ld	(hl),a ; 3
   00E1 3E 02              3796 	ld	a,#>_Asteroids
   00E3 CE 00              3797 	adc	a,#0x00
   00E5 23                 3798 	inc	hl
   00E6 77                 3799 	ld	(hl),a ; 3
                           3800 ; genCall
   00E7 CD 00 00           3801 	call	_rand
   00EA 4B                 3802 	ld	c,e
                           3803 ; genIpush
   00EB 3E 0C              3804 	ld	a,#0x0C
   00ED F5                 3805 	push	af
   00EE 33                 3806 	inc	sp
                           3807 ; genIpush
   00EF 79                 3808 	ld	a,c
   00F0 F5                 3809 	push	af
   00F1 33                 3810 	inc	sp
                           3811 ; genCall
   00F2 CD 00 00           3812 	call	__modschar
   00F5 4B                 3813 	ld	c,e
   00F6 E8 02              3814 	lda	sp,2(sp)
                           3815 ; genPlus
                           3816 ; AOP_STK for _init_sloc1_1_0
                           3817 ; genPlusIncr
   00F8 79                 3818 	ld	a,c
   00F9 C6 10              3819 	add	a,#0x10
   00FB F8 00              3820 	lda	hl,0(sp)
   00FD 77                 3821 	ld	(hl),a ; 3
                           3822 ; genAssign (pointer)
                           3823 ; AOP_STK for _init_sloc0_1_0
                           3824 ; AOP_STK for _init_sloc1_1_0
   00FE 23                 3825 	inc	hl
   00FF 5E                 3826 	ld	e,(hl)
   0100 23                 3827 	inc	hl
   0101 56                 3828 	ld	d,(hl)
   0102 2B                 3829 	dec	hl
   0103 2B                 3830 	dec	hl
   0104 7E                 3831 	ld	a,(hl)
   0105 12                 3832 	ld	(de),a
                           3833 ;	main.c 102
                           3834 ; genPlus
                           3835 ; AOP_STK for _init_sloc0_1_0
                           3836 ; genPlusIncr
   0106 23                 3837 	inc	hl
   0107 34                 3838 	inc	(hl)
   0108 20 02              3839 	jr	nz,00108$
   010A 23                 3840 	inc	hl
   010B 34                 3841 	inc	(hl)
   010C                    3842 00108$:
                           3843 ; genCall
   010C CD 00 00           3844 	call	_rand
   010F 4B                 3845 	ld	c,e
                           3846 ; genIpush
   0110 3E 70              3847 	ld	a,#0x70
   0112 F5                 3848 	push	af
   0113 33                 3849 	inc	sp
                           3850 ; genIpush
   0114 79                 3851 	ld	a,c
   0115 F5                 3852 	push	af
   0116 33                 3853 	inc	sp
                           3854 ; genCall
   0117 CD 00 00           3855 	call	__modschar
   011A 4B                 3856 	ld	c,e
   011B E8 02              3857 	lda	sp,2(sp)
                           3858 ; genPlus
                           3859 ; genPlusIncr
   011D 79                 3860 	ld	a,c
   011E C6 20              3861 	add	a,#0x20
   0120 4F                 3862 	ld	c,a
                           3863 ; genAssign (pointer)
                           3864 ; AOP_STK for _init_sloc0_1_0
   0121 F8 01              3865 	lda	hl,1(sp)
   0123 5E                 3866 	ld	e,(hl)
   0124 23                 3867 	inc	hl
   0125 56                 3868 	ld	d,(hl)
   0126 79                 3869 	ld	a,c
   0127 12                 3870 	ld	(de),a
                           3871 ;	main.c 103
                           3872 ; genIpush
   0128 79                 3873 	ld	a,c
   0129 F5                 3874 	push	af
   012A 33                 3875 	inc	sp
                           3876 ; genIpush
                           3877 ; AOP_STK for _init_sloc1_1_0
   012B 2B                 3878 	dec	hl
   012C 2B                 3879 	dec	hl
   012D 7E                 3880 	ld	a,(hl)
   012E F5                 3881 	push	af
   012F 33                 3882 	inc	sp
                           3883 ; genIpush
                           3884 ; AOP_HL for _i
   0130 21 31 02           3885 	ld	hl,#_i + 0
   0133 7E                 3886 	ld	a,(hl)
   0134 F5                 3887 	push	af
   0135 33                 3888 	inc	sp
                           3889 ; genCall
   0136 CD 00 00           3890 	call	_move_sprite
   0139 E8 03              3891 	lda	sp,3(sp)
                           3892 ;	main.c 104
                           3893 ; genPlus
                           3894 ; AOP_HL for _i
                           3895 ; genPlusIncr
   013B 21 31 02           3896 	ld	hl,#_i + 0
   013E 34                 3897 	inc	(hl)
                           3898 ; genGoto
   013F C3 BC 00           3899 	jp	00101$
                           3900 ; genLabel
   0142                    3901 00104$:
                           3902 ; genEndFunction
   0142 E8 03              3903 	lda	sp,3(sp)
   0144 C1                 3904 	pop bc
   0145 C9                 3905 	ret
   0146                    3906 ___init_end:
                           3907 ;	main.c 110
                           3908 ; genLabel
                           3909 ; genFunction
                           3910 ;	---------------------------------
                           3911 ; Function updateSwitches
                           3912 ; ---------------------------------
   0146                    3913 ___updateSwitches_start:
   0146                    3914 _updateSwitches:
   0146 C5                 3915 	push	bc
                           3916 ;	main.c 112
                           3917 ; genAnd
                           3918 ; AOP_SFR for _LCDC_REG
   0147 F0 00              3919 	ldh	a,(_LCDC_REG+0) ; x
   0149 E6 DF              3920 	and	a,#0xDF
   014B E0 00              3921 	ldh	(_LCDC_REG+0),a
                           3922 ;	main.c 113
                           3923 ; genOr
                           3924 ; AOP_SFR for _LCDC_REG
                           3925 ; Type res[4] = l[4]&r[1]
                           3926 ; Size res[1] = l[1]&r[1]
   014D F0 00              3927 	ldh	a,(_LCDC_REG+0) ; x
   014F F6 02              3928 	or	a,#0x02
   0151 E0 00              3929 	ldh	(_LCDC_REG+0),a
                           3930 ;	main.c 114
                           3931 ; genOr
                           3932 ; AOP_SFR for _LCDC_REG
                           3933 ; Type res[4] = l[4]&r[1]
                           3934 ; Size res[1] = l[1]&r[1]
   0153 F0 00              3935 	ldh	a,(_LCDC_REG+0) ; x
   0155 F6 01              3936 	or	a,#0x01
   0157 E0 00              3937 	ldh	(_LCDC_REG+0),a
                           3938 ; genLabel
   0159                    3939 00101$:
                           3940 ; genEndFunction
   0159 C1                 3941 	pop	bc
   015A C9                 3942 	ret
   015B                    3943 ___updateSwitches_end:
                           3944 ;	main.c 119
                           3945 ; genLabel
                           3946 ; genFunction
                           3947 ;	---------------------------------
                           3948 ; Function checkInput
                           3949 ; ---------------------------------
   015B                    3950 ___checkInput_start:
   015B                    3951 _checkInput:
   015B C5                 3952 	push	bc
   015C E8 FB              3953 	lda sp,-5(sp)
                           3954 ;	main.c 121
                           3955 ; genCall
   015E CD 00 00           3956 	call	_joypad
   0161 4B                 3957 	ld	c,e
                           3958 ; genAnd
   0162 79                 3959 	ld	a,c
   0163 CB 6F              3960 	bit	5,a
   0165 CA BC 01           3961 	jp	z,00104$
                           3962 ; genPlus
                           3963 ; genPlusIncr
   0168 11 2A 02           3964 	ld	de,#_player + 2
                           3965 ; genPointerGet
   016B 1A                 3966 	ld	a,(de)
   016C 4F                 3967 	ld	c,a
                           3968 ; genCmpEq
   016D 79                 3969 	ld	a,c ; 2
   016E FE 01              3970 	cp	a,#0x01
   0170 C2 75 01           3971 	jp	nz,00128$
   0173 18 03              3972 	jr	00129$
   0175                    3973 00128$:
   0175 C3 BC 01           3974 	jp	00104$
   0178                    3975 00129$:
                           3976 ;	main.c 122
                           3977 ; genPlus
                           3978 ; genPlusIncr
   0178 01 2D 02           3979 	ld	bc,#_laser + 2
                           3980 ; genPointerGet
                           3981 ; AOP_STK for _checkInput_sloc0_1_0
   017B 0A                 3982 	ld	a,(bc)
   017C F8 04              3983 	lda	hl,4(sp)
   017E 77                 3984 	ld	(hl),a ; 3
                           3985 ; genCmpEq
                           3986 ; AOP_STK for _checkInput_sloc0_1_0
   017F 7E                 3987 	ld	a,(hl)
   0180 B7                 3988 	or	a,a
   0181 C2 86 01           3989 	jp	nz,00130$
   0184 18 03              3990 	jr	00131$
   0186                    3991 00130$:
   0186 C3 BC 01           3992 	jp	00104$
   0189                    3993 00131$:
                           3994 ;	main.c 123
                           3995 ; genAssign (pointer)
   0189 3E 01              3996 	ld	a,#0x01
   018B 02                 3997 	ld	(bc),a
                           3998 ;	main.c 124
                           3999 ; genIpush
   018C 3E 03              4000 	ld	a,#0x03
   018E F5                 4001 	push	af
   018F 33                 4002 	inc	sp
                           4003 ; genIpush
   0190 3E 03              4004 	ld	a,#0x03
   0192 F5                 4005 	push	af
   0193 33                 4006 	inc	sp
                           4007 ; genCall
   0194 CD 00 00           4008 	call	_set_sprite_tile
   0197 E8 02              4009 	lda	sp,2(sp)
                           4010 ;	main.c 125
                           4011 ; genPointerGet
   0199 11 28 02           4012 	ld	de,#_player + 0
   019C 1A                 4013 	ld	a,(de)
   019D 4F                 4014 	ld	c,a
                           4015 ; genPlus
                           4016 ; genPlusIncr
   019E 0C                 4017 	inc	c
                           4018 ; genAssign (pointer)
   019F 11 2B 02           4019 	ld	de,#_laser + 0
   01A2 79                 4020 	ld	a,c
   01A3 12                 4021 	ld	(de),a
                           4022 ;	main.c 126
                           4023 ; genPlus
                           4024 ; AOP_STK for _checkInput_sloc1_1_0
                           4025 ; genPlusIncr
   01A4 3E 2B              4026 	ld	a,#<_laser
   01A6 C6 01              4027 	add	a,#0x01
   01A8 F8 02              4028 	lda	hl,2(sp)
   01AA 77                 4029 	ld	(hl),a ; 3
   01AB 3E 02              4030 	ld	a,#>_laser
   01AD CE 00              4031 	adc	a,#0x00
   01AF 23                 4032 	inc	hl
   01B0 77                 4033 	ld	(hl),a ; 3
                           4034 ; genPlus
                           4035 ; genPlusIncr
   01B1 11 29 02           4036 	ld	de,#_player + 1
                           4037 ; genPointerGet
   01B4 1A                 4038 	ld	a,(de)
   01B5 4F                 4039 	ld	c,a
                           4040 ; genAssign (pointer)
                           4041 ; AOP_STK for _checkInput_sloc1_1_0
   01B6 2B                 4042 	dec	hl
   01B7 5E                 4043 	ld	e,(hl)
   01B8 23                 4044 	inc	hl
   01B9 56                 4045 	ld	d,(hl)
   01BA 79                 4046 	ld	a,c
   01BB 12                 4047 	ld	(de),a
                           4048 ; genLabel
   01BC                    4049 00104$:
                           4050 ;	main.c 130
                           4051 ; genCall
   01BC CD 00 00           4052 	call	_joypad
   01BF 4B                 4053 	ld	c,e
                           4054 ; genAnd
   01C0 79                 4055 	ld	a,c
   01C1 CB 57              4056 	bit	2,a
   01C3 CA FE 01           4057 	jp	z,00107$
                           4058 ; genPlus
                           4059 ; AOP_STK for _checkInput_sloc2_1_0
                           4060 ; genPlusIncr
   01C6 3E 28              4061 	ld	a,#<_player
   01C8 C6 01              4062 	add	a,#0x01
   01CA F8 00              4063 	lda	hl,0(sp)
   01CC 77                 4064 	ld	(hl),a ; 3
   01CD 3E 02              4065 	ld	a,#>_player
   01CF CE 00              4066 	adc	a,#0x00
   01D1 23                 4067 	inc	hl
   01D2 77                 4068 	ld	(hl),a ; 3
                           4069 ; genPointerGet
                           4070 ; AOP_STK for _checkInput_sloc2_1_0
                           4071 ; AOP_STK for _checkInput_sloc1_1_0
   01D3 2B                 4072 	dec	hl
   01D4 5E                 4073 	ld	e,(hl)
   01D5 23                 4074 	inc	hl
   01D6 56                 4075 	ld	d,(hl)
   01D7 1A                 4076 	ld	a,(de)
   01D8 23                 4077 	inc	hl
   01D9 77                 4078 	ld	(hl),a ; 3
                           4079 ; genCmpGt
                           4080 ; AOP_STK for _checkInput_sloc1_1_0
   01DA AF                 4081 	xor	a,a
   01DB 3E 14              4082 	ld	a,#0x14
   01DD 9E                 4083 	sbc	a,(hl) ; 2
   01DE D2 FE 01           4084 	jp	nc,00107$
                           4085 ; genPlus
                           4086 ; genPlusIncr
   01E1 11 2A 02           4087 	ld	de,#_player + 2
                           4088 ; genPointerGet
   01E4 1A                 4089 	ld	a,(de)
   01E5 4F                 4090 	ld	c,a
                           4091 ; genCmpEq
   01E6 79                 4092 	ld	a,c ; 2
   01E7 FE 01              4093 	cp	a,#0x01
   01E9 C2 EE 01           4094 	jp	nz,00132$
   01EC 18 03              4095 	jr	00133$
   01EE                    4096 00132$:
   01EE C3 FE 01           4097 	jp	00107$
   01F1                    4098 00133$:
                           4099 ;	main.c 131
                           4100 ; genMinus
                           4101 ; AOP_STK for _checkInput_sloc1_1_0
   01F1 F8 02              4102 	lda	hl,2(sp)
   01F3 7E                 4103 	ld	a,(hl)
   01F4 C6 FF              4104 	add	a,#0xFF
   01F6 4F                 4105 	ld	c,a
                           4106 ; genAssign (pointer)
                           4107 ; AOP_STK for _checkInput_sloc2_1_0
   01F7 2B                 4108 	dec	hl
   01F8 2B                 4109 	dec	hl
   01F9 5E                 4110 	ld	e,(hl)
   01FA 23                 4111 	inc	hl
   01FB 56                 4112 	ld	d,(hl)
   01FC 79                 4113 	ld	a,c
   01FD 12                 4114 	ld	(de),a
                           4115 ; genLabel
   01FE                    4116 00107$:
                           4117 ;	main.c 136
                           4118 ; genCall
   01FE CD 00 00           4119 	call	_joypad
   0201 4B                 4120 	ld	c,e
                           4121 ; genAnd
   0202 79                 4122 	ld	a,c
   0203 CB 5F              4123 	bit	3,a
   0205 CA 40 02           4124 	jp	z,00111$
                           4125 ; genPlus
                           4126 ; AOP_STK for _checkInput_sloc1_1_0
                           4127 ; genPlusIncr
   0208 3E 28              4128 	ld	a,#<_player
   020A C6 01              4129 	add	a,#0x01
   020C F8 02              4130 	lda	hl,2(sp)
   020E 77                 4131 	ld	(hl),a ; 3
   020F 3E 02              4132 	ld	a,#>_player
   0211 CE 00              4133 	adc	a,#0x00
   0213 23                 4134 	inc	hl
   0214 77                 4135 	ld	(hl),a ; 3
                           4136 ; genPointerGet
                           4137 ; AOP_STK for _checkInput_sloc1_1_0
                           4138 ; AOP_STK for _checkInput_sloc2_1_0
   0215 2B                 4139 	dec	hl
   0216 5E                 4140 	ld	e,(hl)
   0217 23                 4141 	inc	hl
   0218 56                 4142 	ld	d,(hl)
   0219 1A                 4143 	ld	a,(de)
   021A F8 00              4144 	lda	hl,0(sp)
   021C 77                 4145 	ld	(hl),a ; 3
                           4146 ; genCmpLt
                           4147 ; AOP_STK for _checkInput_sloc2_1_0
   021D 7E                 4148 	ld	a,(hl)
   021E FE 94              4149 	cp	#0x94
   0220 D2 40 02           4150 	jp	nc,00111$
                           4151 ; genPlus
                           4152 ; genPlusIncr
   0223 11 2A 02           4153 	ld	de,#_player + 2
                           4154 ; genPointerGet
   0226 1A                 4155 	ld	a,(de)
   0227 4F                 4156 	ld	c,a
                           4157 ; genCmpEq
   0228 79                 4158 	ld	a,c ; 2
   0229 FE 01              4159 	cp	a,#0x01
   022B C2 30 02           4160 	jp	nz,00134$
   022E 18 03              4161 	jr	00135$
   0230                    4162 00134$:
   0230 C3 40 02           4163 	jp	00111$
   0233                    4164 00135$:
                           4165 ;	main.c 137
                           4166 ; genPlus
                           4167 ; AOP_STK for _checkInput_sloc2_1_0
                           4168 ; genPlusIncr
   0233 F8 00              4169 	lda	hl,0(sp)
   0235 7E                 4170 	ld	a,(hl)
   0236 C6 01              4171 	add	a,#0x01
   0238 4F                 4172 	ld	c,a
                           4173 ; genAssign (pointer)
                           4174 ; AOP_STK for _checkInput_sloc1_1_0
   0239 23                 4175 	inc	hl
   023A 23                 4176 	inc	hl
   023B 5E                 4177 	ld	e,(hl)
   023C 23                 4178 	inc	hl
   023D 56                 4179 	ld	d,(hl)
   023E 79                 4180 	ld	a,c
   023F 12                 4181 	ld	(de),a
                           4182 ; genLabel
   0240                    4183 00111$:
                           4184 ;	main.c 141
                           4185 ; genPlus
                           4186 ; genPlusIncr
   0240 11 2A 02           4187 	ld	de,#_player + 2
                           4188 ; genPointerGet
   0243 1A                 4189 	ld	a,(de)
   0244 4F                 4190 	ld	c,a
                           4191 ; genCmpEq
   0245 79                 4192 	ld	a,c ; 2
   0246 FE 01              4193 	cp	a,#0x01
   0248 C2 4D 02           4194 	jp	nz,00136$
   024B 18 03              4195 	jr	00137$
   024D                    4196 00136$:
   024D C3 91 02           4197 	jp	00116$
   0250                    4198 00137$:
                           4199 ;	main.c 142
                           4200 ; genPlus
                           4201 ; genPlusIncr
   0250 11 29 02           4202 	ld	de,#_player + 1
                           4203 ; genPointerGet
   0253 1A                 4204 	ld	a,(de)
   0254 4F                 4205 	ld	c,a
                           4206 ; genMinus
                           4207 ; AOP_STK for _checkInput_sloc2_1_0
   0255 79                 4208 	ld	a,c
   0256 C6 F8              4209 	add	a,#0xF8
   0258 F8 00              4210 	lda	hl,0(sp)
   025A 77                 4211 	ld	(hl),a ; 3
                           4212 ; genPointerGet
   025B 11 28 02           4213 	ld	de,#_player + 0
   025E 1A                 4214 	ld	a,(de)
   025F 47                 4215 	ld	b,a
                           4216 ; genIpush
                           4217 ; AOP_STK for _checkInput_sloc2_1_0
   0260 7E                 4218 	ld	a,(hl)
   0261 F5                 4219 	push	af
   0262 33                 4220 	inc	sp
                           4221 ; genIpush
   0263 78                 4222 	ld	a,b
   0264 F5                 4223 	push	af
   0265 33                 4224 	inc	sp
                           4225 ; genIpush
   0266 3E 00              4226 	ld	a,#0x00
   0268 F5                 4227 	push	af
   0269 33                 4228 	inc	sp
                           4229 ; genCall
   026A CD 00 00           4230 	call	_move_sprite
   026D E8 03              4231 	lda	sp,3(sp)
                           4232 ;	main.c 143
                           4233 ; genIpush
   026F 79                 4234 	ld	a,c
   0270 F5                 4235 	push	af
   0271 33                 4236 	inc	sp
                           4237 ; genIpush
   0272 78                 4238 	ld	a,b
   0273 F5                 4239 	push	af
   0274 33                 4240 	inc	sp
                           4241 ; genIpush
   0275 3E 01              4242 	ld	a,#0x01
   0277 F5                 4243 	push	af
   0278 33                 4244 	inc	sp
                           4245 ; genCall
   0279 CD 00 00           4246 	call	_move_sprite
   027C E8 03              4247 	lda	sp,3(sp)
                           4248 ;	main.c 144
                           4249 ; genPlus
                           4250 ; genPlusIncr
   027E 79                 4251 	ld	a,c
   027F C6 08              4252 	add	a,#0x08
   0281 4F                 4253 	ld	c,a
                           4254 ; genIpush
   0282 79                 4255 	ld	a,c
   0283 F5                 4256 	push	af
   0284 33                 4257 	inc	sp
                           4258 ; genIpush
   0285 78                 4259 	ld	a,b
   0286 F5                 4260 	push	af
   0287 33                 4261 	inc	sp
                           4262 ; genIpush
   0288 3E 02              4263 	ld	a,#0x02
   028A F5                 4264 	push	af
   028B 33                 4265 	inc	sp
                           4266 ; genCall
   028C CD 00 00           4267 	call	_move_sprite
   028F E8 03              4268 	lda	sp,3(sp)
                           4269 ; genLabel
   0291                    4270 00116$:
                           4271 ; genEndFunction
   0291 E8 05              4272 	lda	sp,5(sp)
   0293 C1                 4273 	pop bc
   0294 C9                 4274 	ret
   0295                    4275 ___checkInput_end:
                           4276 ;	main.c 149
                           4277 ; genLabel
                           4278 ; genFunction
                           4279 ;	---------------------------------
                           4280 ; Function moveLaser
                           4281 ; ---------------------------------
   0295                    4282 ___moveLaser_start:
   0295                    4283 _moveLaser:
   0295 C5                 4284 	push	bc
   0296 E8 FD              4285 	lda sp,-3(sp)
                           4286 ;	main.c 150
                           4287 ; genPlus
                           4288 ; AOP_STK for _moveLaser_sloc1_1_0
                           4289 ; genPlusIncr
   0298 3E 2B              4290 	ld	a,#<_laser
   029A C6 02              4291 	add	a,#0x02
   029C F8 00              4292 	lda	hl,0(sp)
   029E 77                 4293 	ld	(hl),a ; 3
   029F 3E 02              4294 	ld	a,#>_laser
   02A1 CE 00              4295 	adc	a,#0x00
   02A3 23                 4296 	inc	hl
   02A4 77                 4297 	ld	(hl),a ; 3
                           4298 ; genPointerGet
                           4299 ; AOP_STK for _moveLaser_sloc1_1_0
                           4300 ; AOP_STK for _moveLaser_sloc0_1_0
   02A5 2B                 4301 	dec	hl
   02A6 5E                 4302 	ld	e,(hl)
   02A7 23                 4303 	inc	hl
   02A8 56                 4304 	ld	d,(hl)
   02A9 1A                 4305 	ld	a,(de)
   02AA 23                 4306 	inc	hl
   02AB 77                 4307 	ld	(hl),a ; 3
                           4308 ; genCmpEq
                           4309 ; AOP_STK for _moveLaser_sloc0_1_0
   02AC 7E                 4310 	ld	a,(hl) ; 2
   02AD FE 01              4311 	cp	a,#0x01
   02AF C2 B6 02           4312 	jp	nz,00114$
   02B2 3E 01              4313 	ld	a,#0x01
   02B4 18 01              4314 	jr	00115$
   02B6                    4315 00114$:
   02B6 AF                 4316 	xor	a,a
   02B7                    4317 00115$:
   02B7 4F                 4318 	ld	c,a
                           4319 ; genIfx
                           4320 ; Removed redundent or a,a
   02B8 AF                 4321 	xor	a,a
   02B9 B1                 4322 	or	a,c
   02BA CA D5 02           4323 	jp	z,00105$
                           4324 ; genPointerGet
   02BD 11 2B 02           4325 	ld	de,#_laser + 0
   02C0 1A                 4326 	ld	a,(de)
   02C1 47                 4327 	ld	b,a
                           4328 ; genCmpGt
   02C2 AF                 4329 	xor	a,a
   02C3 3E 03              4330 	ld	a,#0x03
   02C5 98                 4331 	sbc	a,b ; 2
   02C6 D2 D5 02           4332 	jp	nc,00105$
                           4333 ;	main.c 151
                           4334 ; genMinus
   02C9 78                 4335 	ld	a,b
   02CA C6 FD              4336 	add	a,#0xFD
   02CC 47                 4337 	ld	b,a
                           4338 ; genAssign (pointer)
   02CD 11 2B 02           4339 	ld	de,#_laser + 0
   02D0 78                 4340 	ld	a,b
   02D1 12                 4341 	ld	(de),a
                           4342 ; genGoto
   02D2 C3 07 03           4343 	jp	00106$
                           4344 ; genLabel
   02D5                    4345 00105$:
                           4346 ;	main.c 153
                           4347 ; genIfx
                           4348 ; Removed redundent or a,a
   02D5 AF                 4349 	xor	a,a
   02D6 B1                 4350 	or	a,c
   02D7 CA 07 03           4351 	jp	z,00106$
                           4352 ; genPointerGet
   02DA 11 2B 02           4353 	ld	de,#_laser + 0
   02DD 1A                 4354 	ld	a,(de)
   02DE 4F                 4355 	ld	c,a
                           4356 ; genCmpGt
   02DF AF                 4357 	xor	a,a
   02E0 3E 03              4358 	ld	a,#0x03
   02E2 99                 4359 	sbc	a,c ; 2
   02E3 DA 07 03           4360 	jp	c,00106$
                           4361 ;	main.c 154
                           4362 ; genAssign (pointer)
   02E6 11 2B 02           4363 	ld	de,#_laser + 0
   02E9 3E 00              4364 	ld	a,#0x00
   02EB 12                 4365 	ld	(de),a
                           4366 ;	main.c 155
                           4367 ; genPlus
                           4368 ; genPlusIncr
   02EC 11 2C 02           4369 	ld	de,#_laser + 1
                           4370 ; genAssign (pointer)
   02EF 3E 00              4371 	ld	a,#0x00
   02F1 12                 4372 	ld	(de),a
                           4373 ;	main.c 156
                           4374 ; genIpush
   02F2 3E 05              4375 	ld	a,#0x05
   02F4 F5                 4376 	push	af
   02F5 33                 4377 	inc	sp
                           4378 ; genIpush
   02F6 3E 03              4379 	ld	a,#0x03
   02F8 F5                 4380 	push	af
   02F9 33                 4381 	inc	sp
                           4382 ; genCall
   02FA CD 00 00           4383 	call	_set_sprite_tile
   02FD E8 02              4384 	lda	sp,2(sp)
                           4385 ;	main.c 157
                           4386 ; genAssign (pointer)
                           4387 ; AOP_STK for _moveLaser_sloc1_1_0
   02FF F8 00              4388 	lda	hl,0(sp)
   0301 5E                 4389 	ld	e,(hl)
   0302 23                 4390 	inc	hl
   0303 56                 4391 	ld	d,(hl)
   0304 3E 00              4392 	ld	a,#0x00
   0306 12                 4393 	ld	(de),a
                           4394 ; genLabel
   0307                    4395 00106$:
                           4396 ;	main.c 160
                           4397 ; genPlus
                           4398 ; genPlusIncr
   0307 11 2C 02           4399 	ld	de,#_laser + 1
                           4400 ; genPointerGet
   030A 1A                 4401 	ld	a,(de)
   030B 4F                 4402 	ld	c,a
                           4403 ; genPointerGet
   030C 11 2B 02           4404 	ld	de,#_laser + 0
   030F 1A                 4405 	ld	a,(de)
   0310 47                 4406 	ld	b,a
                           4407 ; genIpush
   0311 79                 4408 	ld	a,c
   0312 F5                 4409 	push	af
   0313 33                 4410 	inc	sp
                           4411 ; genIpush
   0314 78                 4412 	ld	a,b
   0315 F5                 4413 	push	af
   0316 33                 4414 	inc	sp
                           4415 ; genIpush
   0317 3E 03              4416 	ld	a,#0x03
   0319 F5                 4417 	push	af
   031A 33                 4418 	inc	sp
                           4419 ; genCall
   031B CD 00 00           4420 	call	_move_sprite
   031E E8 03              4421 	lda	sp,3(sp)
                           4422 ; genLabel
   0320                    4423 00108$:
                           4424 ; genEndFunction
   0320 E8 03              4425 	lda	sp,3(sp)
   0322 C1                 4426 	pop bc
   0323 C9                 4427 	ret
   0324                    4428 ___moveLaser_end:
                           4429 ;	main.c 163
                           4430 ; genLabel
                           4431 ; genFunction
                           4432 ;	---------------------------------
                           4433 ; Function moveAstroids
                           4434 ; ---------------------------------
   0324                    4435 ___moveAstroids_start:
   0324                    4436 _moveAstroids:
   0324 C5                 4437 	push	bc
   0325 E8 FD              4438 	lda sp,-3(sp)
                           4439 ;	main.c 165
                           4440 ; genCmpGt
                           4441 ; AOP_HL for _score
   0327 AF                 4442 	xor	a,a
   0328 3E 1E              4443 	ld	a,#0x1E
   032A 21 33 02           4444 	ld	hl,#_score + 0
   032D 9E                 4445 	sbc	a,(hl) ; 2
   032E D2 39 03           4446 	jp	nc,00102$
                           4447 ;	main.c 166
                           4448 ; genAssign
                           4449 ; AOP_HL for _j
   0331 21 32 02           4450 	ld	hl,#_j + 0
   0334 36 00              4451 	ld	(hl),#0x00
                           4452 ; genGoto
   0336 C3 43 03           4453 	jp	00103$
                           4454 ; genLabel
   0339                    4455 00102$:
                           4456 ;	main.c 168
                           4457 ; genMinus
                           4458 ; AOP_HL for _score
                           4459 ; AOP_HL for _j
   0339 3E 1E              4460 	ld	a,#0x1E
   033B 21 33 02           4461 	ld	hl,#_score + 0
   033E 96                 4462 	sub	a,(hl)
   033F 21 32 02           4463 	ld	hl,#_j + 0
   0342 77                 4464 	ld	(hl),a
                           4465 ; genLabel
   0343                    4466 00103$:
                           4467 ;	main.c 169
                           4468 ; genPlus
                           4469 ; genPlusIncr
   0343 11 2A 02           4470 	ld	de,#_player + 2
                           4471 ; genPointerGet
   0346 1A                 4472 	ld	a,(de)
   0347 4F                 4473 	ld	c,a
                           4474 ; genCmpEq
   0348 79                 4475 	ld	a,c ; 2
   0349 FE 01              4476 	cp	a,#0x01
   034B C2 50 03           4477 	jp	nz,00118$
   034E 18 03              4478 	jr	00119$
   0350                    4479 00118$:
   0350 C3 B9 03           4480 	jp	00108$
   0353                    4481 00119$:
                           4482 ; genCmpGt
                           4483 ; AOP_HL for _tick
                           4484 ; AOP_HL for _j
   0353 AF                 4485 	xor	a,a
   0354 21 32 02           4486 	ld	hl,#_j + 0
   0357 7E                 4487 	ld	a,(hl)
   0358 21 35 02           4488 	ld	hl,#_tick + 0
   035B 9E                 4489 	sbc	a,(hl) ; 2
   035C D2 B9 03           4490 	jp	nc,00108$
                           4491 ;	main.c 170
                           4492 ; genAssign
                           4493 ; AOP_HL for _i
   035F 21 31 02           4494 	ld	hl,#_i + 0
   0362 36 04              4495 	ld	(hl),#0x04
                           4496 ;	main.c 171
                           4497 ; genLabel
   0364                    4498 00104$:
                           4499 ; genCmpLt
                           4500 ; AOP_HL for _i
   0364 21 31 02           4501 	ld	hl,#_i + 0
   0367 7E                 4502 	ld	a,(hl)
   0368 FE 14              4503 	cp	#0x14
   036A D2 B1 03           4504 	jp	nc,00106$
                           4505 ;	main.c 172
                           4506 ; genMinus
                           4507 ; AOP_HL for _i
   036D 7E                 4508 	ld	a,(hl)
   036E C6 FC              4509 	add	a,#0xFC
   0370 4F                 4510 	ld	c,a
                           4511 ; genLeftShift
   0371 79                 4512 	ld	a,c
   0372 87                 4513 	add	a,a
   0373 4F                 4514 	ld	c,a
                           4515 ; genPlus
                           4516 ; AOP_STK for _moveAstroids_sloc1_1_0
   0374 3E 36              4517 	ld	a,#<_Asteroids
   0376 81                 4518 	add	a,c
   0377 F8 00              4519 	lda	hl,0(sp)
   0379 77                 4520 	ld	(hl),a ; 3
   037A 3E 02              4521 	ld	a,#>_Asteroids
   037C CE 00              4522 	adc	a,#0x00
   037E 23                 4523 	inc	hl
   037F 77                 4524 	ld	(hl),a ; 3
                           4525 ; genPointerGet
                           4526 ; AOP_STK for _moveAstroids_sloc1_1_0
                           4527 ; AOP_STK for _moveAstroids_sloc0_1_0
   0380 2B                 4528 	dec	hl
   0381 5E                 4529 	ld	e,(hl)
   0382 23                 4530 	inc	hl
   0383 56                 4531 	ld	d,(hl)
   0384 1A                 4532 	ld	a,(de)
   0385 23                 4533 	inc	hl
   0386 77                 4534 	ld	(hl),a ; 3
                           4535 ; genPlus
                           4536 ; AOP_STK for _moveAstroids_sloc0_1_0
                           4537 ; genPlusIncr
   0387 7E                 4538 	ld	a,(hl)
   0388 C6 01              4539 	add	a,#0x01
   038A 4F                 4540 	ld	c,a
                           4541 ; genAssign (pointer)
                           4542 ; AOP_STK for _moveAstroids_sloc1_1_0
   038B 2B                 4543 	dec	hl
   038C 2B                 4544 	dec	hl
   038D 5E                 4545 	ld	e,(hl)
   038E 23                 4546 	inc	hl
   038F 56                 4547 	ld	d,(hl)
   0390 79                 4548 	ld	a,c
   0391 12                 4549 	ld	(de),a
                           4550 ;	main.c 173
                           4551 ; genPlus
                           4552 ; AOP_STK for _moveAstroids_sloc1_1_0
                           4553 ; genPlusIncr
   0392 2B                 4554 	dec	hl
   0393 5E                 4555 	ld	e,(hl)
   0394 23                 4556 	inc	hl
   0395 56                 4557 	ld	d,(hl)
   0396 13                 4558 	inc	de
                           4559 ; genPointerGet
   0397 1A                 4560 	ld	a,(de)
   0398 47                 4561 	ld	b,a
                           4562 ; genIpush
   0399 78                 4563 	ld	a,b
   039A F5                 4564 	push	af
   039B 33                 4565 	inc	sp
                           4566 ; genIpush
   039C 79                 4567 	ld	a,c
   039D F5                 4568 	push	af
   039E 33                 4569 	inc	sp
                           4570 ; genIpush
                           4571 ; AOP_HL for _i
   039F 21 31 02           4572 	ld	hl,#_i + 0
   03A2 7E                 4573 	ld	a,(hl)
   03A3 F5                 4574 	push	af
   03A4 33                 4575 	inc	sp
                           4576 ; genCall
   03A5 CD 00 00           4577 	call	_move_sprite
   03A8 E8 03              4578 	lda	sp,3(sp)
                           4579 ;	main.c 174
                           4580 ; genPlus
                           4581 ; AOP_HL for _i
                           4582 ; genPlusIncr
   03AA 21 31 02           4583 	ld	hl,#_i + 0
   03AD 34                 4584 	inc	(hl)
                           4585 ; genGoto
   03AE C3 64 03           4586 	jp	00104$
                           4587 ; genLabel
   03B1                    4588 00106$:
                           4589 ;	main.c 176
                           4590 ; genAssign
                           4591 ; AOP_HL for _tick
   03B1 21 35 02           4592 	ld	hl,#_tick + 0
   03B4 36 00              4593 	ld	(hl),#0x00
                           4594 ; genGoto
   03B6 C3 BD 03           4595 	jp	00111$
                           4596 ; genLabel
   03B9                    4597 00108$:
                           4598 ;	main.c 180
                           4599 ; genPlus
                           4600 ; AOP_HL for _tick
                           4601 ; genPlusIncr
   03B9 21 35 02           4602 	ld	hl,#_tick + 0
   03BC 34                 4603 	inc	(hl)
                           4604 ; genLabel
   03BD                    4605 00111$:
                           4606 ; genEndFunction
   03BD E8 03              4607 	lda	sp,3(sp)
   03BF C1                 4608 	pop bc
   03C0 C9                 4609 	ret
   03C1                    4610 ___moveAstroids_end:
                           4611 ;	main.c 185
                           4612 ; genLabel
                           4613 ; genFunction
                           4614 ;	---------------------------------
                           4615 ; Function checkCollisions
                           4616 ; ---------------------------------
   03C1                    4617 ___checkCollisions_start:
   03C1                    4618 _checkCollisions:
   03C1 C5                 4619 	push	bc
   03C2 E8 F2              4620 	lda sp,-14(sp)
                           4621 ;	main.c 189
                           4622 ; genAssign
                           4623 ; AOP_HL for _i
   03C4 21 31 02           4624 	ld	hl,#_i + 0
   03C7 36 00              4625 	ld	(hl),#0x00
                           4626 ;	main.c 190
                           4627 ; genPlus
                           4628 ; AOP_STK for _checkCollisions_sloc0_1_0
                           4629 ; genPlusIncr
   03C9 3E 28              4630 	ld	a,#<_player
   03CB C6 01              4631 	add	a,#0x01
   03CD F8 0C              4632 	lda	hl,12(sp)
   03CF 77                 4633 	ld	(hl),a ; 3
   03D0 3E 02              4634 	ld	a,#>_player
   03D2 CE 00              4635 	adc	a,#0x00
   03D4 23                 4636 	inc	hl
   03D5 77                 4637 	ld	(hl),a ; 3
                           4638 ; genPlus
                           4639 ; AOP_STK for _checkCollisions_sloc1_1_0
                           4640 ; genPlusIncr
   03D6 3E 2E              4641 	ld	a,#<_explosion
   03D8 C6 01              4642 	add	a,#0x01
   03DA F8 0A              4643 	lda	hl,10(sp)
   03DC 77                 4644 	ld	(hl),a ; 3
   03DD 3E 02              4645 	ld	a,#>_explosion
   03DF CE 00              4646 	adc	a,#0x00
   03E1 23                 4647 	inc	hl
   03E2 77                 4648 	ld	(hl),a ; 3
                           4649 ; genPlus
                           4650 ; AOP_STK for _checkCollisions_sloc2_1_0
                           4651 ; genPlusIncr
   03E3 3E 2B              4652 	ld	a,#<_laser
   03E5 C6 01              4653 	add	a,#0x01
   03E7 F8 08              4654 	lda	hl,8(sp)
   03E9 77                 4655 	ld	(hl),a ; 3
   03EA 3E 02              4656 	ld	a,#>_laser
   03EC CE 00              4657 	adc	a,#0x00
   03EE 23                 4658 	inc	hl
   03EF 77                 4659 	ld	(hl),a ; 3
                           4660 ; genPlus
                           4661 ; AOP_STK for _checkCollisions_sloc3_1_0
                           4662 ; genPlusIncr
   03F0 3E 28              4663 	ld	a,#<_player
   03F2 C6 02              4664 	add	a,#0x02
   03F4 F8 06              4665 	lda	hl,6(sp)
   03F6 77                 4666 	ld	(hl),a ; 3
   03F7 3E 02              4667 	ld	a,#>_player
   03F9 CE 00              4668 	adc	a,#0x00
   03FB 23                 4669 	inc	hl
   03FC 77                 4670 	ld	(hl),a ; 3
                           4671 ; genLabel
   03FD                    4672 00106$:
                           4673 ; genCmpLt
                           4674 ; AOP_HL for _i
   03FD 21 31 02           4675 	ld	hl,#_i + 0
   0400 7E                 4676 	ld	a,(hl)
   0401 FE 10              4677 	cp	#0x10
   0403 D2 2D 05           4678 	jp	nc,00108$
                           4679 ;	main.c 191
                           4680 ; genLeftShift
                           4681 ; AOP_HL for _i
   0406 7E                 4682 	ld	a,(hl)
   0407 87                 4683 	add	a,a
   0408 4F                 4684 	ld	c,a
                           4685 ; genPlus
                           4686 ; AOP_STK for _checkCollisions_sloc5_1_0
   0409 3E 36              4687 	ld	a,#<_Asteroids
   040B 81                 4688 	add	a,c
   040C F8 02              4689 	lda	hl,2(sp)
   040E 77                 4690 	ld	(hl),a ; 3
   040F 3E 02              4691 	ld	a,#>_Asteroids
   0411 CE 00              4692 	adc	a,#0x00
   0413 23                 4693 	inc	hl
   0414 77                 4694 	ld	(hl),a ; 3
                           4695 ; genPlus
                           4696 ; AOP_STK for _checkCollisions_sloc5_1_0
                           4697 ; AOP_STK for _checkCollisions_sloc4_1_0
                           4698 ; genPlusIncr
   0415 2B                 4699 	dec	hl
   0416 7E                 4700 	ld	a,(hl)
   0417 C6 01              4701 	add	a,#0x01
   0419 23                 4702 	inc	hl
   041A 23                 4703 	inc	hl
   041B 77                 4704 	ld	(hl),a ; 3
   041C 2B                 4705 	dec	hl
   041D 7E                 4706 	ld	a,(hl)
   041E CE 00              4707 	adc	a,#0x00
   0420 23                 4708 	inc	hl
   0421 23                 4709 	inc	hl
   0422 77                 4710 	ld	(hl),a ; 3
                           4711 ; genPointerGet
                           4712 ; AOP_STK for _checkCollisions_sloc4_1_0
   0423 2B                 4713 	dec	hl
   0424 5E                 4714 	ld	e,(hl)
   0425 23                 4715 	inc	hl
   0426 56                 4716 	ld	d,(hl)
   0427 1A                 4717 	ld	a,(de)
   0428 4F                 4718 	ld	c,a
                           4719 ; genPointerGet
                           4720 ; AOP_STK for _checkCollisions_sloc5_1_0
                           4721 ; AOP_STK for _checkCollisions_sloc6_1_0
   0429 F8 02              4722 	lda	hl,2(sp)
   042B 5E                 4723 	ld	e,(hl)
   042C 23                 4724 	inc	hl
   042D 56                 4725 	ld	d,(hl)
   042E 1A                 4726 	ld	a,(de)
   042F 2B                 4727 	dec	hl
   0430 2B                 4728 	dec	hl
   0431 77                 4729 	ld	(hl),a ; 3
                           4730 ; genPointerGet
                           4731 ; AOP_STK for _checkCollisions_sloc0_1_0
                           4732 ; AOP_STK for _checkCollisions_sloc7_1_0
   0432 F8 0C              4733 	lda	hl,12(sp)
   0434 5E                 4734 	ld	e,(hl)
   0435 23                 4735 	inc	hl
   0436 56                 4736 	ld	d,(hl)
   0437 1A                 4737 	ld	a,(de)
   0438 F8 00              4738 	lda	hl,0(sp)
   043A 77                 4739 	ld	(hl),a ; 3
                           4740 ; genPointerGet
   043B 11 28 02           4741 	ld	de,#_player + 0
   043E 1A                 4742 	ld	a,(de)
   043F 47                 4743 	ld	b,a
                           4744 ; genIpush
   0440 79                 4745 	ld	a,c
   0441 F5                 4746 	push	af
   0442 33                 4747 	inc	sp
                           4748 ; genIpush
                           4749 ; AOP_STK for _checkCollisions_sloc6_1_0
   0443 23                 4750 	inc	hl
   0444 7E                 4751 	ld	a,(hl)
   0445 F5                 4752 	push	af
   0446 33                 4753 	inc	sp
                           4754 ; genIpush
   0447 3E 0E              4755 	ld	a,#0x0E
   0449 F5                 4756 	push	af
   044A 33                 4757 	inc	sp
                           4758 ; genIpush
                           4759 ; AOP_STK for _checkCollisions_sloc7_1_0
   044B 2B                 4760 	dec	hl
   044C 7E                 4761 	ld	a,(hl)
   044D F5                 4762 	push	af
   044E 33                 4763 	inc	sp
                           4764 ; genIpush
   044F 78                 4765 	ld	a,b
   0450 F5                 4766 	push	af
   0451 33                 4767 	inc	sp
                           4768 ; genCall
   0452 CD 97 05           4769 	call	_collisionCheck
   0455 43                 4770 	ld	b,e
   0456 E8 05              4771 	lda	sp,5(sp)
                           4772 ; genCmpEq
   0458 78                 4773 	ld	a,b ; 2
   0459 FE 01              4774 	cp	a,#0x01
   045B C2 60 04           4775 	jp	nz,00124$
   045E 18 03              4776 	jr	00125$
   0460                    4777 00124$:
   0460 C3 95 04           4778 	jp	00104$
   0463                    4779 00125$:
                           4780 ;	main.c 192
                           4781 ; genIpush
   0463 3E 07              4782 	ld	a,#0x07
   0465 F5                 4783 	push	af
   0466 33                 4784 	inc	sp
                           4785 ; genIpush
   0467 3E 00              4786 	ld	a,#0x00
   0469 F5                 4787 	push	af
   046A 33                 4788 	inc	sp
                           4789 ; genCall
   046B CD 00 00           4790 	call	_set_sprite_tile
   046E E8 02              4791 	lda	sp,2(sp)
                           4792 ;	main.c 193
                           4793 ; genIpush
   0470 3E 04              4794 	ld	a,#0x04
   0472 F5                 4795 	push	af
   0473 33                 4796 	inc	sp
                           4797 ; genIpush
   0474 3E 01              4798 	ld	a,#0x01
   0476 F5                 4799 	push	af
   0477 33                 4800 	inc	sp
                           4801 ; genCall
   0478 CD 00 00           4802 	call	_set_sprite_tile
   047B E8 02              4803 	lda	sp,2(sp)
                           4804 ;	main.c 194
                           4805 ; genIpush
   047D 3E 08              4806 	ld	a,#0x08
   047F F5                 4807 	push	af
   0480 33                 4808 	inc	sp
                           4809 ; genIpush
   0481 3E 02              4810 	ld	a,#0x02
   0483 F5                 4811 	push	af
   0484 33                 4812 	inc	sp
                           4813 ; genCall
   0485 CD 00 00           4814 	call	_set_sprite_tile
   0488 E8 02              4815 	lda	sp,2(sp)
                           4816 ;	main.c 195
                           4817 ; genAssign (pointer)
                           4818 ; AOP_STK for _checkCollisions_sloc3_1_0
   048A F8 06              4819 	lda	hl,6(sp)
   048C 5E                 4820 	ld	e,(hl)
   048D 23                 4821 	inc	hl
   048E 56                 4822 	ld	d,(hl)
   048F 3E 00              4823 	ld	a,#0x00
   0491 12                 4824 	ld	(de),a
                           4825 ; genGoto
   0492 C3 26 05           4826 	jp	00105$
                           4827 ; genLabel
   0495                    4828 00104$:
                           4829 ;	main.c 197
                           4830 ; genPointerGet
                           4831 ; AOP_STK for _checkCollisions_sloc2_1_0
                           4832 ; AOP_STK for _checkCollisions_sloc7_1_0
   0495 F8 08              4833 	lda	hl,8(sp)
   0497 5E                 4834 	ld	e,(hl)
   0498 23                 4835 	inc	hl
   0499 56                 4836 	ld	d,(hl)
   049A 1A                 4837 	ld	a,(de)
   049B F8 00              4838 	lda	hl,0(sp)
   049D 77                 4839 	ld	(hl),a ; 3
                           4840 ; genPointerGet
   049E 11 2B 02           4841 	ld	de,#_laser + 0
   04A1 1A                 4842 	ld	a,(de)
   04A2 47                 4843 	ld	b,a
                           4844 ; genIpush
   04A3 79                 4845 	ld	a,c
   04A4 F5                 4846 	push	af
   04A5 33                 4847 	inc	sp
                           4848 ; genIpush
                           4849 ; AOP_STK for _checkCollisions_sloc6_1_0
   04A6 23                 4850 	inc	hl
   04A7 7E                 4851 	ld	a,(hl)
   04A8 F5                 4852 	push	af
   04A9 33                 4853 	inc	sp
                           4854 ; genIpush
   04AA 3E 08              4855 	ld	a,#0x08
   04AC F5                 4856 	push	af
   04AD 33                 4857 	inc	sp
                           4858 ; genIpush
                           4859 ; AOP_STK for _checkCollisions_sloc7_1_0
   04AE 2B                 4860 	dec	hl
   04AF 7E                 4861 	ld	a,(hl)
   04B0 F5                 4862 	push	af
   04B1 33                 4863 	inc	sp
                           4864 ; genIpush
   04B2 78                 4865 	ld	a,b
   04B3 F5                 4866 	push	af
   04B4 33                 4867 	inc	sp
                           4868 ; genCall
   04B5 CD 97 05           4869 	call	_collisionCheck
   04B8 4B                 4870 	ld	c,e
   04B9 E8 05              4871 	lda	sp,5(sp)
                           4872 ; genCmpEq
   04BB 79                 4873 	ld	a,c ; 2
   04BC FE 01              4874 	cp	a,#0x01
   04BE C2 C3 04           4875 	jp	nz,00126$
   04C1 18 03              4876 	jr	00127$
   04C3                    4877 00126$:
   04C3 C3 26 05           4878 	jp	00105$
   04C6                    4879 00127$:
                           4880 ;	main.c 198
                           4881 ; genPlus
                           4882 ; AOP_HL for _score
                           4883 ; genPlusIncr
   04C6 21 33 02           4884 	ld	hl,#_score + 0
   04C9 34                 4885 	inc	(hl)
                           4886 ;	main.c 199
                           4887 ; genCall
   04CA CD 00 00           4888 	call	_rand
   04CD 4B                 4889 	ld	c,e
                           4890 ; genAnd
   04CE 79                 4891 	ld	a,c
   04CF E6 0C              4892 	and	a,#0x0C
   04D1 4F                 4893 	ld	c,a
                           4894 ; genPlus
                           4895 ; genPlusIncr
   04D2 79                 4896 	ld	a,c
   04D3 C6 08              4897 	add	a,#0x08
   04D5 4F                 4898 	ld	c,a
                           4899 ; genAssign (pointer)
                           4900 ; AOP_STK for _checkCollisions_sloc5_1_0
   04D6 F8 02              4901 	lda	hl,2(sp)
   04D8 5E                 4902 	ld	e,(hl)
   04D9 23                 4903 	inc	hl
   04DA 56                 4904 	ld	d,(hl)
   04DB 79                 4905 	ld	a,c
   04DC 12                 4906 	ld	(de),a
                           4907 ;	main.c 200
                           4908 ; genCall
   04DD CD 00 00           4909 	call	_rand
   04E0 43                 4910 	ld	b,e
                           4911 ; genAnd
   04E1 78                 4912 	ld	a,b
   04E2 E6 70              4913 	and	a,#0x70
   04E4 47                 4914 	ld	b,a
                           4915 ; genPlus
                           4916 ; AOP_STK for _checkCollisions_sloc7_1_0
                           4917 ; genPlusIncr
   04E5 78                 4918 	ld	a,b
   04E6 C6 20              4919 	add	a,#0x20
   04E8 F8 00              4920 	lda	hl,0(sp)
   04EA 77                 4921 	ld	(hl),a ; 3
                           4922 ; genAssign (pointer)
                           4923 ; AOP_STK for _checkCollisions_sloc4_1_0
                           4924 ; AOP_STK for _checkCollisions_sloc7_1_0
   04EB F8 04              4925 	lda	hl,4(sp)
   04ED 5E                 4926 	ld	e,(hl)
   04EE 23                 4927 	inc	hl
   04EF 56                 4928 	ld	d,(hl)
   04F0 F8 00              4929 	lda	hl,0(sp)
   04F2 7E                 4930 	ld	a,(hl)
   04F3 12                 4931 	ld	(de),a
                           4932 ;	main.c 201
                           4933 ; genPlus
                           4934 ; AOP_HL for _i
                           4935 ; genPlusIncr
   04F4 21 31 02           4936 	ld	hl,#_i + 0
   04F7 7E                 4937 	ld	a,(hl)
   04F8 C6 04              4938 	add	a,#0x04
   04FA 47                 4939 	ld	b,a
                           4940 ; genIpush
                           4941 ; AOP_STK for _checkCollisions_sloc7_1_0
   04FB F8 00              4942 	lda	hl,0(sp)
   04FD 7E                 4943 	ld	a,(hl)
   04FE F5                 4944 	push	af
   04FF 33                 4945 	inc	sp
                           4946 ; genIpush
   0500 79                 4947 	ld	a,c
   0501 F5                 4948 	push	af
   0502 33                 4949 	inc	sp
                           4950 ; genIpush
   0503 78                 4951 	ld	a,b
   0504 F5                 4952 	push	af
   0505 33                 4953 	inc	sp
                           4954 ; genCall
   0506 CD 00 00           4955 	call	_move_sprite
   0509 E8 03              4956 	lda	sp,3(sp)
                           4957 ;	main.c 202
                           4958 ; genIpush
   050B 3E 04              4959 	ld	a,#0x04
   050D F5                 4960 	push	af
   050E 33                 4961 	inc	sp
                           4962 ; genIpush
   050F 3E 03              4963 	ld	a,#0x03
   0511 F5                 4964 	push	af
   0512 33                 4965 	inc	sp
                           4966 ; genCall
   0513 CD 00 00           4967 	call	_set_sprite_tile
   0516 E8 02              4968 	lda	sp,2(sp)
                           4969 ;	main.c 203
                           4970 ; genPlus
                           4971 ; genPlusIncr
   0518 11 2D 02           4972 	ld	de,#_laser + 2
                           4973 ; genAssign (pointer)
   051B 3E 00              4974 	ld	a,#0x00
   051D 12                 4975 	ld	(de),a
                           4976 ;	main.c 204
                           4977 ; genAssign (pointer)
                           4978 ; AOP_STK for _checkCollisions_sloc1_1_0
   051E F8 0A              4979 	lda	hl,10(sp)
   0520 5E                 4980 	ld	e,(hl)
   0521 23                 4981 	inc	hl
   0522 56                 4982 	ld	d,(hl)
   0523 3E 01              4983 	ld	a,#0x01
   0525 12                 4984 	ld	(de),a
                           4985 ; genLabel
   0526                    4986 00105$:
                           4987 ;	main.c 206
                           4988 ; genPlus
                           4989 ; AOP_HL for _i
                           4990 ; genPlusIncr
   0526 21 31 02           4991 	ld	hl,#_i + 0
   0529 34                 4992 	inc	(hl)
                           4993 ; genGoto
   052A C3 FD 03           4994 	jp	00106$
                           4995 ; genLabel
   052D                    4996 00108$:
                           4997 ;	main.c 209
                           4998 ; genPointerGet
   052D 11 2E 02           4999 	ld	de,#_explosion + 0
   0530 1A                 5000 	ld	a,(de)
   0531 4F                 5001 	ld	c,a
                           5002 ; genCmpEq
   0532 79                 5003 	ld	a,c ; 2
   0533 FE 03              5004 	cp	a,#0x03
   0535 C2 3A 05           5005 	jp	nz,00128$
   0538 18 03              5006 	jr	00129$
   053A                    5007 00128$:
   053A C3 7B 05           5008 	jp	00112$
   053D                    5009 00129$:
                           5010 ; genPointerGet
                           5011 ; AOP_STK for _checkCollisions_sloc1_1_0
   053D F8 0A              5012 	lda	hl,10(sp)
   053F 5E                 5013 	ld	e,(hl)
   0540 23                 5014 	inc	hl
   0541 56                 5015 	ld	d,(hl)
   0542 1A                 5016 	ld	a,(de)
   0543 47                 5017 	ld	b,a
                           5018 ; genCmpEq
   0544 78                 5019 	ld	a,b ; 2
   0545 FE 01              5020 	cp	a,#0x01
   0547 C2 4C 05           5021 	jp	nz,00130$
   054A 18 03              5022 	jr	00131$
   054C                    5023 00130$:
   054C C3 7B 05           5024 	jp	00112$
   054F                    5025 00131$:
                           5026 ;	main.c 210
                           5027 ; genAssign (pointer)
   054F 11 2B 02           5028 	ld	de,#_laser + 0
   0552 3E 00              5029 	ld	a,#0x00
   0554 12                 5030 	ld	(de),a
                           5031 ;	main.c 211
                           5032 ; genAssign (pointer)
                           5033 ; AOP_STK for _checkCollisions_sloc2_1_0
   0555 F8 08              5034 	lda	hl,8(sp)
   0557 5E                 5035 	ld	e,(hl)
   0558 23                 5036 	inc	hl
   0559 56                 5037 	ld	d,(hl)
   055A 3E 00              5038 	ld	a,#0x00
   055C 12                 5039 	ld	(de),a
                           5040 ;	main.c 212
                           5041 ; genIpush
   055D 3E 05              5042 	ld	a,#0x05
   055F F5                 5043 	push	af
   0560 33                 5044 	inc	sp
                           5045 ; genIpush
   0561 3E 03              5046 	ld	a,#0x03
   0563 F5                 5047 	push	af
   0564 33                 5048 	inc	sp
                           5049 ; genCall
   0565 CD 00 00           5050 	call	_set_sprite_tile
   0568 E8 02              5051 	lda	sp,2(sp)
                           5052 ;	main.c 213
                           5053 ; genAssign (pointer)
   056A 11 2E 02           5054 	ld	de,#_explosion + 0
   056D 3E 00              5055 	ld	a,#0x00
   056F 12                 5056 	ld	(de),a
                           5057 ;	main.c 214
                           5058 ; genAssign (pointer)
                           5059 ; AOP_STK for _checkCollisions_sloc1_1_0
   0570 F8 0A              5060 	lda	hl,10(sp)
   0572 5E                 5061 	ld	e,(hl)
   0573 23                 5062 	inc	hl
   0574 56                 5063 	ld	d,(hl)
   0575 3E 00              5064 	ld	a,#0x00
   0577 12                 5065 	ld	(de),a
                           5066 ; genGoto
   0578 C3 93 05           5067 	jp	00115$
                           5068 ; genLabel
   057B                    5069 00112$:
                           5070 ;	main.c 216
                           5071 ; genPointerGet
                           5072 ; AOP_STK for _checkCollisions_sloc1_1_0
   057B F8 0A              5073 	lda	hl,10(sp)
   057D 5E                 5074 	ld	e,(hl)
   057E 23                 5075 	inc	hl
   057F 56                 5076 	ld	d,(hl)
   0580 1A                 5077 	ld	a,(de)
   0581 47                 5078 	ld	b,a
                           5079 ; genCmpEq
   0582 78                 5080 	ld	a,b ; 2
   0583 FE 01              5081 	cp	a,#0x01
   0585 C2 8A 05           5082 	jp	nz,00132$
   0588 18 03              5083 	jr	00133$
   058A                    5084 00132$:
   058A C3 93 05           5085 	jp	00115$
   058D                    5086 00133$:
                           5087 ;	main.c 217
                           5088 ; genPlus
                           5089 ; genPlusIncr
   058D 0C                 5090 	inc	c
                           5091 ; genAssign (pointer)
   058E 11 2E 02           5092 	ld	de,#_explosion + 0
   0591 79                 5093 	ld	a,c
   0592 12                 5094 	ld	(de),a
                           5095 ; genLabel
   0593                    5096 00115$:
                           5097 ; genEndFunction
   0593 E8 0E              5098 	lda	sp,14(sp)
   0595 C1                 5099 	pop bc
   0596 C9                 5100 	ret
   0597                    5101 ___checkCollisions_end:
                           5102 ;	main.c 225
                           5103 ; genLabel
                           5104 ; genFunction
                           5105 ;	---------------------------------
                           5106 ; Function collisionCheck
                           5107 ; ---------------------------------
   0597                    5108 ___collisionCheck_start:
   0597                    5109 _collisionCheck:
   0597 C5                 5110 	push	bc
                           5111 ;	main.c 226
                           5112 ; genAssign
                           5113 ; AOP_HL for _j
   0598 21 32 02           5114 	ld	hl,#_j + 0
   059B 36 08              5115 	ld	(hl),#0x08
                           5116 ;	main.c 228
                           5117 ; genPlus
                           5118 ; AOP_STK for 
                           5119 ; genPlusIncr
   059D F8 07              5120 	lda	hl,7(sp)
   059F 7E                 5121 	ld	a,(hl)
   05A0 C6 08              5122 	add	a,#0x08
   05A2 4F                 5123 	ld	c,a
                           5124 ; genCmpLt
                           5125 ; AOP_STK for 
   05A3 AF                 5126 	xor	a,a
   05A4 F8 04              5127 	lda	hl,4(sp)
   05A6 7E                 5128 	ld	a,(hl)
   05A7 99                 5129 	sbc	a,c ; 2
   05A8 D2 D4 05           5130 	jp	nc,00102$
                           5131 ; genPlus
                           5132 ; AOP_STK for 
                           5133 ; genPlusIncr
   05AB 7E                 5134 	ld	a,(hl)
   05AC C6 08              5135 	add	a,#0x08
   05AE 4F                 5136 	ld	c,a
                           5137 ; genCmpGt
                           5138 ; AOP_STK for 
   05AF AF                 5139 	xor	a,a
   05B0 F8 07              5140 	lda	hl,7(sp)
   05B2 7E                 5141 	ld	a,(hl)
   05B3 99                 5142 	sbc	a,c ; 2
   05B4 D2 D4 05           5143 	jp	nc,00102$
                           5144 ; genPlus
                           5145 ; AOP_STK for 
                           5146 ; AOP_STK for 
   05B7 23                 5147 	inc	hl
   05B8 7E                 5148 	ld	a,(hl)
   05B9 2B                 5149 	dec	hl
   05BA 2B                 5150 	dec	hl
   05BB 86                 5151 	add	a,(hl)
   05BC 4F                 5152 	ld	c,a
                           5153 ; genCmpLt
                           5154 ; AOP_STK for 
   05BD AF                 5155 	xor	a,a
   05BE 2B                 5156 	dec	hl
   05BF 7E                 5157 	ld	a,(hl)
   05C0 99                 5158 	sbc	a,c ; 2
   05C1 D2 D4 05           5159 	jp	nc,00102$
                           5160 ; genPlus
                           5161 ; AOP_STK for 
                           5162 ; AOP_STK for 
   05C4 2A                 5163 	ld	a,(hl+)
   05C5 86                 5164 	add	a,(hl)
   05C6 4F                 5165 	ld	c,a
                           5166 ; genCmpGt
                           5167 ; AOP_STK for 
   05C7 AF                 5168 	xor	a,a
   05C8 23                 5169 	inc	hl
   05C9 23                 5170 	inc	hl
   05CA 7E                 5171 	ld	a,(hl)
   05CB 99                 5172 	sbc	a,c ; 2
   05CC D2 D4 05           5173 	jp	nc,00102$
                           5174 ;	main.c 229
                           5175 ; genRet
   05CF 1E 01              5176 	ld	e,#0x01
   05D1 C3 D6 05           5177 	jp	00107$
                           5178 ; genLabel
   05D4                    5179 00102$:
                           5180 ;	main.c 233
                           5181 ; genRet
   05D4 1E 00              5182 	ld	e,#0x00
                           5183 ; genLabel
   05D6                    5184 00107$:
                           5185 ; genEndFunction
   05D6 C1                 5186 	pop	bc
   05D7 C9                 5187 	ret
   05D8                    5188 ___collisionCheck_end:
                           5189 	.area _CODE
ASxxxx Assembler V01.75  (GameBoy Z80-like CPU), page 1.

Symbol Table

  1 _Asteroid_Sprites                  0230 GR
  1 _Asteroids                         0236 GR
    _BCPD_REG                          **** GX
    _BCPS_REG                          **** GX
    _BGP_REG                           **** GX
    _DIV_REG                           **** GX
    _DMA_REG                           **** GX
    _HDMA1_REG                         **** GX
    _HDMA2_REG                         **** GX
    _HDMA3_REG                         **** GX
    _HDMA4_REG                         **** GX
    _HDMA5_REG                         **** GX
    _IE_REG                            **** GX
    _IF_REG                            **** GX
  1 _Initial_Load                      0000 GR
    _KEY1_REG                          **** GX
    _LCDC_REG                          **** GX
    _LYC_REG                           **** GX
    _LY_REG                            **** GX
    _NR10_REG                          **** GX
    _NR11_REG                          **** GX
    _NR12_REG                          **** GX
    _NR13_REG                          **** GX
    _NR14_REG                          **** GX
    _NR21_REG                          **** GX
    _NR22_REG                          **** GX
    _NR23_REG                          **** GX
    _NR24_REG                          **** GX
    _NR30_REG                          **** GX
    _NR31_REG                          **** GX
    _NR32_REG                          **** GX
    _NR33_REG                          **** GX
    _NR34_REG                          **** GX
    _NR41_REG                          **** GX
    _NR42_REG                          **** GX
    _NR43_REG                          **** GX
    _NR44_REG                          **** GX
    _NR50_REG                          **** GX
    _NR51_REG                          **** GX
    _NR52_REG                          **** GX
    _OBP0_REG                          **** GX
    _OBP1_REG                          **** GX
    _OCPD_REG                          **** GX
    _OCPS_REG                          **** GX
    _P1_REG                            **** GX
    _RP_REG                            **** GX
    _SB_REG                            **** GX
    _SCX_REG                           **** GX
    _SCY_REG                           **** GX
    _SC_REG                            **** GX
    _STAT_REG                          **** GX
    _SVBK_REG                          **** GX
  1 _Sprites                           0198 GR
    _TAC_REG                           **** GX
    _TIMA_REG                          **** GX
    _TMA_REG                           **** GX
  1 _Tiles                             0168 GR
    _VBK_REG                           **** GX
    _WX_REG                            **** GX
    _WY_REG                            **** GX
  0 ___checkCollisions_end             0597 R
  0 ___checkCollisions_start           03C1 R
  0 ___checkInput_end                  0295 R
  0 ___checkInput_start                015B R
  0 ___collisionCheck_end              05D8 R
  0 ___collisionCheck_start            0597 R
  0 ___init_end                        0146 R
  0 ___init_start                      001B R
  0 ___main_end                        001B R
  0 ___main_start                      0000 R
  0 ___moveAstroids_end                03C1 R
  0 ___moveAstroids_start              0324 R
  0 ___moveLaser_end                   0324 R
  0 ___moveLaser_start                 0295 R
  0 ___updateSwitches_end              015B R
  0 ___updateSwitches_start            0146 R
    __cpu                              **** GX
    __io_in                            **** GX
    __io_out                           **** GX
    __io_status                        **** GX
    __modschar                         **** GX
    _add_LCD                           **** GX
    _add_TIM                           **** GX
    _add_VBL                           **** GX
    _arand                             **** GX
    _cgb_compatibility                 **** GX
  0 _checkCollisions                   03C1 GR
  0 _checkInput                        015B GR
  0 _collisionCheck                    0597 GR
    _cpu_fast                          **** GX
    _cpu_slow                          **** GX
    _delay                             **** GX
    _disable_interrupts                **** GX
    _display_off                       **** GX
    _enable_interrupts                 **** GX
  1 _explosion                         022E GR
    _get_bkg_tiles                     **** GX
    _get_data                          **** GX
    _get_mode                          **** GX
    _get_sprite_data                   **** GX
    _get_sprite_prop                   **** GX
    _get_sprite_tile                   **** GX
    _get_tiles                         **** GX
    _get_win_tiles                     **** GX
    _hiramcpy                          **** GX
  1 _i                                 0231 GR
  0 _init                              001B GR
    _initarand                         **** GX
    _initrand                          **** GX
  1 _j                                 0232 GR
    _joypad                            **** GX
  1 _laser                             022B GR
  0 _main                              0000 GR
    _mode                              **** GX
  0 _moveAstroids                      0324 GR
  0 _moveLaser                         0295 GR
    _move_bkg                          **** GX
    _move_sprite                       **** GX
    _move_win                          **** GX
  1 _player                            0228 GR
    _rand                              **** GX
    _randw                             **** GX
    _receive_byte                      **** GX
    _remove_JOY                        **** GX
    _remove_LCD                        **** GX
    _remove_SIO                        **** GX
    _remove_TIM                        **** GX
    _remove_VBL                        **** GX
    _reset                             **** GX
  1 _score                             0233 GR
    _scroll_bkg                        **** GX
    _scroll_sprite                     **** GX
    _scroll_win                        **** GX
    _send_byte                         **** GX
    _set_bkg_data                      **** GX
    _set_bkg_palette                   **** GX
    _set_bkg_palette_entry             **** GX
    _set_bkg_tiles                     **** GX
    _set_data                          **** GX
    _set_interrupts                    **** GX
    _set_sprite_data                   **** GX
    _set_sprite_palette                **** GX
    _set_sprite_palette_entry          **** GX
    _set_sprite_prop                   **** GX
    _set_sprite_tile                   **** GX
    _set_tiles                         **** GX
    _set_win_data                      **** GX
    _set_win_tiles                     **** GX
    _sgb_check                         **** GX
    _sys_time                          **** GX
  1 _tick                              0235 GR
  1 _upDown                            0234 GR
  0 _updateSwitches                    0146 GR
    _wait_vbl_done                     **** GX
    _waitpad                           **** GX
    _waitpadup                         **** GX

ASxxxx Assembler V01.75  (GameBoy Z80-like CPU), page 2.

Area Table

   0 _CODE                              size  5D8   flags 0
   1 _DATA                              size  256   flags 0
   2 _OVERLAY                           size    0   flags 0
   3 _ISEG                              size    0   flags 0
   4 _BSEG                              size    0   flags 0
   5 _XSEG                              size    0   flags 0
   6 _GSINIT                            size  D0E   flags 0
   7 _GSFINAL                           size    0   flags 0
